(dp0
S'class_sl'
p1
(dp2
S'OMC'
p3
(I20
I28
tp4
sS'O'
p5
(I10
I20
tp6
sS'NW'
p7
(I0
I10
tp8
ssS'class_hierarchy'
p9
(dp10
g3
(lp11
S'OMC_subcl'
p12
asg5
(lp13
S'O_subcl'
p14
asg7
(lp15
S'NW_subcl'
p16
assS'feats'
p17
(dp18
S'uvig_226224'
p19
(lp20
F0.0
aF9.25445e-05
aF0.000414055
aF0.00050888
aF0.0
aF0.0
aF8.19165e-05
aF0.0
aF0.000149723
aF0.0
aF0.002121447
aF0.00256586
aF0.000700102
aF0.00036442
aF0.0
aF0.0
aF0.0
aF0.0
aF0.0
aF0.002001224
aF8.6217e-05
aF0.000539436
aF0.001536444
aF0.000894549
aF0.0
aF0.0
aF0.0
aF0.001122309
asS'uvig_302929'
p21
(lp22
F0.003532346
aF0.002359884
aF0.00063326
aF0.001730193
aF0.002530228
aF0.003441113
aF0.002129829
aF0.002003005
aF0.002021255
aF0.00338557
aF0.007296492
aF0.015011756
aF0.005180752
aF0.014672718
aF0.002103242
aF0.003535257
aF0.001784092
aF0.002960926
aF0.002938889
aF0.001429445
aF0.000431085
aF0.001290794
aF0.001295003
aF0.000569258
aF0.004649023
aF0.002193458
aF0.002137517
aF0.001795695
asS'uvig_176172'
p23
(lp24
F0.0
aF0.00124935
aF0.000389699
aF0.000356216
aF0.0
aF0.0
aF4.09583e-05
aF0.0
aF0.000149723
aF0.0
aF0.000450004
aF0.000235941
aF0.0
aF0.084142762
aF0.000168259
aF0.0
aF0.0
aF0.0
aF0.000125059
aF0.0
aF0.0
aF0.000154125
aF0.000131695
aF0.000162645
aF0.0
aF0.0
aF0.0
aF0.0
asS'uvig_100152'
p25
(lp26
F0.0
aF0.001033413
aF0.00082811
aF0.000457992
aF0.0
aF5.29402e-05
aF0.00116731
aF0.006009014
aF0.000873382
aF0.0
aF0.000321431
aF0.009644095
aF0.001400203
aF0.047278757
aF0.0
aF0.0
aF0.014124063
aF0.0
aF0.000250118
aF0.005431893
aF0.005819648
aF0.0
aF0.000438984
aF0.002439679
aF0.000244685
aF0.000121859
aF0.000133595
aF0.0
asS'uvig_207325'
p27
(lp28
F0.003744286
aF0.037773565
aF0.031443814
aF0.025902003
aF0.00056801
aF0.000264701
aF0.004894512
aF0.002003005
aF0.00835951
aF0.0
aF0.038652123
aF0.027605115
aF0.010221484
aF0.004967626
aF0.001346075
aF0.000857032
aF0.000371686
aF0.000211495
aF0.005189952
aF0.014294454
aF0.004095308
aF0.028782789
aF0.026668282
aF0.016833785
aF0.000244685
aF0.000731153
aF0.000534379
aF0.0
asS'uvig_349986'
p29
(lp30
F0.007205985
aF0.004673495
aF4.87123e-05
aF0.047249528
aF0.000645466
aF0.0
aF0.002477975
aF0.0
aF9.9815e-05
aF0.0
aF0.000450004
aF0.000589853
aF0.001400203
aF0.00034524
aF0.0
aF0.0
aF0.0
aF0.000740232
aF0.000125059
aF0.0
aF0.0
aF0.000154125
aF0.0
aF0.094496898
aF0.0
aF0.000304647
aF0.0
aF0.0
asS'uvig_270749'
p31
(lp32
F0.000141294
aF0.001820041
aF0.001290877
aF0.003714826
aF7.7456e-05
aF0.0
aF0.000430062
aF0.000333834
aF0.001946393
aF0.0
aF0.005512548
aF0.002683831
aF0.007141037
aF0.001285062
aF0.000799232
aF0.0
aF0.000148674
aF0.0
aF0.00137565
aF0.014723288
aF0.001896774
aF0.013216193
aF0.017866652
aF0.004391422
aF0.0
aF6.09294e-05
aF0.000133595
aF0.004264775
asS'uvig_104399'
p33
(lp34
F0.0
aF9.25445e-05
aF0.002971453
aF0.0
aF0.0
aF5.29402e-05
aF0.0
aF0.0
aF4.99075e-05
aF0.0
aF3.21431e-05
aF0.000176956
aF0.0
aF3.836e-05
aF0.000168259
aF0.0
aF0.0
aF0.0
aF0.0
aF0.0
aF0.006380058
aF0.0
aF0.0
aF0.0
aF0.0
aF0.0
aF0.0
aF0.0
asS'uvig_92540'
p35
(lp36
F0.009961215
aF0.009069357
aF0.019558004
aF0.005623126
aF0.009294717
aF0.011461552
aF0.153880181
aF0.010015023
aF0.010854886
aF0.011003102
aF0.009867943
aF0.009378661
aF0.008681261
aF0.011258674
aF0.008623293
aF0.013391126
aF0.004608905
aF0.011420716
aF0.007816193
aF0.004574225
aF0.005345454
aF0.005471427
aF0.004828825
aF0.002521002
aF0.014069412
aF0.008469186
aF0.006412552
aF0.006733856
asS'uvig_556404'
p37
(lp38
F0.000847763
aF0.000910021
aF0.000803754
aF0.004681698
aF0.0
aF0.0
aF0.000122875
aF0.0
aF0.000748613
aF0.0
aF0.014335839
aF0.002860786
aF0.000280041
aF0.00036442
aF0.0
aF0.0
aF0.000148674
aF0.0
aF0.000250118
aF0.002858891
aF4.31085e-05
aF0.005259506
aF0.002348565
aF0.000650581
aF0.0
aF0.000243718
aF0.0
aF0.001795695
asS'uvig_546341'
p39
(lp40
F0.0
aF0.000308482
aF0.003580357
aF0.000203552
aF0.0
aF0.0
aF0.000204791
aF0.0
aF0.000149723
aF0.0
aF0.000353575
aF0.000530868
aF0.0
aF0.00026852
aF0.000168259
aF0.0
aF0.0
aF0.000211495
aF0.000125059
aF0.000285889
aF8.6217e-05
aF0.016645468
aF0.000899917
aF0.000325291
aF0.0
aF0.000609294
aF0.00026719
aF0.0
asS'uvig_440553'
p41
(lp42
F0.000847763
aF0.003115664
aF0.012884413
aF0.009923164
aF0.000645466
aF0.000317641
aF0.002723724
aF0.0
aF0.003768018
aF0.000211598
aF0.003744675
aF0.020792314
aF0.00434063
aF0.001553582
aF0.000588908
aF0.000642774
aF0.001486743
aF0.000211495
aF0.001688298
aF0.001715335
aF0.083026976
aF0.002311871
aF0.004302044
aF0.006587133
aF0.000489371
aF0.000853011
aF0.000935164
aF0.0
asS'uvig_77482'
p43
(lp44
F0.001271644
aF0.000246785
aF0.000243562
aF0.00050888
aF0.000929472
aF0.000741163
aF0.001351623
aF0.000667668
aF0.004042509
aF0.000634794
aF0.003680389
aF0.000530868
aF0.0
aF0.0003836
aF0.000757167
aF0.00107129
aF0.000446023
aF0.001903453
aF0.00137565
aF0.002001224
aF0.0
aF0.000269718
aF0.000219492
aF0.006424488
aF0.001468113
aF0.002071599
aF0.000935164
aF0.0
asS'uvig_541923'
p45
(lp46
F0.0
aF0.000940869
aF0.000681973
aF0.002747953
aF7.7456e-05
aF0.0
aF0.000163833
aF0.0
aF0.000349353
aF0.0
aF0.000932151
aF0.000737316
aF0.0
aF0.018105942
aF0.0
aF0.0
aF0.002007104
aF0.0
aF0.000375177
aF0.000571778
aF8.6217e-05
aF0.000462374
aF0.002041276
aF0.000650581
aF0.272212544
aF0.0
aF0.0
aF0.0
asS'uvig_483976'
p47
(lp48
F0.000706469
aF0.001604104
aF0.01875425
aF0.00025444
aF5.16373e-05
aF0.000423522
aF0.000368624
aF0.004006009
aF0.006338255
aF0.023698989
aF0.003021455
aF0.000353912
aF0.00840122
aF0.000786381
aF0.000588908
aF0.050779149
aF0.001412406
aF0.0
aF0.000625295
aF0.000285889
aF0.001853666
aF0.004161367
aF0.002941193
aF0.000325291
aF0.0
aF0.000365576
aF0.000734772
aF0.0
asS'uvig_392738'
p49
(lp50
F0.034405047
aF0.002652941
aF0.006649234
aF0.007734979
aF0.002091311
aF0.001429385
aF0.024390643
aF0.003004507
aF0.092503591
aF0.000211598
aF0.014834058
aF0.024744328
aF0.043686343
aF0.208832094
aF0.002271502
aF0.012212707
aF0.001338069
aF0.001268968
aF0.0027513
aF0.002573002
aF0.007156011
aF0.0178592
aF0.136216756
aF0.775004676
aF0.001223427
aF0.004204128
aF0.002271112
aF0.008080627
asS'uvig_366403'
p51
(lp52
F0.000282588
aF0.002622093
aF0.009620687
aF0.003027837
aF0.000180731
aF0.000476462
aF0.000450541
aF0.0
aF0.000524029
aF0.000634794
aF0.001735729
aF0.001238691
aF0.002660386
aF0.000863101
aF0.000168259
aF0.00107129
aF0.000148674
aF0.000422989
aF0.000250118
aF0.000571778
aF0.0
aF0.000886217
aF0.009460107
aF0.002358356
aF0.000978742
aF0.000121859
aF0.000133595
aF0.0
asS'uvig_560376'
p53
(lp54
F0.003037817
aF0.005629788
aF0.003263727
aF0.009872276
aF0.001936399
aF0.000767633
aF0.002252704
aF0.002003005
aF0.005589642
aF0.00116379
aF0.009867943
aF0.008316926
aF0.003360488
aF0.003951085
aF0.000925427
aF0.000749903
aF0.001115058
aF0.001480463
aF0.002438652
aF0.010863785
aF0.00375044
aF0.00999884
aF0.014245033
aF0.013499557
aF0.00134577
aF0.00097487
aF0.000601177
aF0.002693542
asS'uvig_152276'
p55
(lp56
F0.000141294
aF0.001480711
aF0.000584548
aF0.004223706
aF0.000309824
aF0.000211761
aF0.000491499
aF0.000667668
aF0.000149723
aF0.000423196
aF0.002410735
aF0.001238691
aF0.031504574
aF0.001054901
aF0.000420648
aF0.0
aF0.000594697
aF0.0
aF0.000125059
aF0.0
aF0.000172434
aF0.000500905
aF0.001229155
aF0.0
aF0.000244685
aF0.000243718
aF0.000667974
aF0.000897847
asS'uvig_427577'
p57
(lp58
F0.0
aF0.000185089
aF0.000194849
aF0.000101776
aF0.0
aF0.0
aF0.0
aF0.0
aF0.0
aF0.0
aF0.00051429
aF5.89853e-05
aF0.0
aF0.047278757
aF8.41297e-05
aF0.0
aF0.0
aF0.0
aF0.0
aF0.0
aF8.6217e-05
aF7.70624e-05
aF0.000219492
aF0.0
aF0.0
aF0.0
aF0.0
aF0.0
asS'uvig_73872'
p59
(lp60
F0.00183682
aF0.003809747
aF0.005577563
aF0.002544401
aF0.001084384
aF0.001588206
aF0.001822643
aF0.000667668
aF0.001572087
aF0.001481187
aF0.005866123
aF0.004040492
aF0.022823314
aF0.003490764
aF0.000504778
aF0.002571096
aF0.000223012
aF0.001480463
aF0.002376123
aF0.000857667
aF0.000215543
aF0.004604476
aF0.004477637
aF0.001219839
aF0.001223427
aF0.001340447
aF0.001068759
aF0.000448924
asS'uvig_198630'
p61
(lp62
F0.000989057
aF0.003562962
aF0.020848881
aF0.008447412
aF0.0
aF0.000158821
aF0.002334621
aF0.000667668
aF0.001896486
aF0.0
aF0.001446441
aF0.004836794
aF0.000980142
aF0.001476862
aF0.000210324
aF0.000214258
aF0.000148674
aF0.0
aF0.000500236
aF0.000857667
aF0.011553079
aF0.00213848
aF0.004367891
aF0.003334228
aF0.0
aF0.000243718
aF0.0
aF0.000448924
asS'uvig_205716'
p63
(lp64
F0.008901511
aF0.039670727
aF0.026012389
aF0.023103162
aF0.006583758
aF0.007861619
aF0.007495361
aF0.006342848
aF0.01227725
aF0.008040728
aF0.025585937
aF0.037839062
aF0.066229617
aF0.022747508
aF0.00546843
aF0.009320224
aF0.002824813
aF0.008248295
aF0.007378486
aF0.005288948
aF0.006509384
aF0.033734045
aF0.016483852
aF0.011710459
aF0.007952277
aF0.00706781
aF0.0077485
aF0.004938161
asS'uvig_78016'
p65
(lp66
F0.001695526
aF0.004565527
aF0.008110604
aF0.004987026
aF0.001032746
aF0.000741163
aF0.001146831
aF0.001335336
aF0.001597041
aF0.000423196
aF0.00871079
aF0.00669483
aF0.003640529
aF0.003318144
aF0.000673038
aF0.000857032
aF0.000297349
aF0.001268968
aF0.001250591
aF0.000857667
aF0.000258651
aF0.009074092
aF0.002436362
aF0.00154513
aF0.000978742
aF0.000487435
aF0.001870328
aF0.001795695
asS'uvig_518590'
p67
(lp68
F0.000141294
aF0.000555267
aF0.021189867
aF0.002137297
aF0.0
aF0.00010588
aF0.00024575
aF0.0
aF0.000349353
aF0.0
aF0.000546433
aF0.010469889
aF0.008961301
aF0.000460321
aF0.0
aF0.000214258
aF0.000148674
aF0.0
aF0.0
aF0.001429445
aF0.023063049
aF0.00213848
aF0.002151022
aF0.000487936
aF0.0
aF0.0
aF0.0
aF0.0
asS'uvig_213354'
p69
(lp70
F0.000565175
aF0.088580476
aF0.001047315
aF0.000279884
aF5.16373e-05
aF0.000370581
aF6.14374e-05
aF0.011016525
aF0.004940845
aF0.0
aF0.00379289
aF0.182117076
aF0.019182785
aF0.004852546
aF0.000378584
aF0.000107129
aF0.0
aF0.000211495
aF0.000500236
aF0.000714723
aF0.000732845
aF0.000539436
aF0.000482882
aF0.000162645
aF0.0
aF0.000243718
aF0.000133595
aF0.0
asS'uvig_380984'
p71
(lp72
F0.000282588
aF0.002313612
aF0.02511121
aF0.005114246
aF0.000103275
aF0.000211761
aF0.000921561
aF0.0
aF0.007036961
aF0.0
aF0.001494656
aF0.002801801
aF0.002380346
aF0.002224883
aF0.000168259
aF0.0
aF0.000148674
aF0.000211495
aF0.0
aF0.001715335
aF0.040435775
aF0.005837473
aF0.001163308
aF0.001057194
aF0.0
aF0.0
aF0.000400784
aF0.0
asS'uvig_469041'
p73
(lp74
F0.000706469
aF0.012724864
aF0.000657617
aF0.002671621
aF0.000826197
aF0.000952923
aF0.000634853
aF0.001335336
aF0.00079852
aF0.001481187
aF0.045048607
aF0.021293689
aF0.007281057
aF0.008784451
aF0.000757167
aF0.00107129
aF0.000594697
aF0.001480463
aF0.001750827
aF0.000285889
aF0.000431085
aF0.043289776
aF0.00083407
aF0.000325291
aF0.001223427
aF0.001340447
aF0.001469543
aF0.001571233
asS'uvig_332892'
p75
(lp76
F0.0
aF0.005814877
aF0.000243562
aF0.00114498
aF0.000154912
aF0.000264701
aF0.00024575
aF0.0
aF0.00019963
aF0.000211598
aF0.021744832
aF0.008995256
aF0.001960285
aF0.003797645
aF8.41297e-05
aF0.000428516
aF0.0
aF0.0
aF0.000125059
aF0.0
aF0.0
aF0.025700294
aF0.00026339
aF0.0
aF0.0
aF0.000487435
aF0.00026719
aF0.0
asS'uvig_262416'
p77
(lp78
F0.000706469
aF0.000956293
aF0.008841289
aF0.003892934
aF0.000154912
aF0.000370581
aF0.000757728
aF0.0
aF0.001422364
aF0.0
aF0.001044652
aF0.005780558
aF0.001260183
aF0.000575401
aF0.000252389
aF0.000214258
aF0.000446023
aF0.000422989
aF0.000437707
aF0.0
aF0.02159736
aF0.000924748
aF0.003446025
aF0.001951743
aF0.000244685
aF0.0
aF0.00026719
aF0.000448924
asS'uvig_527169'
p79
(lp80
F0.001907467
aF0.01445236
aF0.015734085
aF0.008269303
aF0.001084384
aF0.001217624
aF0.001474497
aF0.0
aF0.003094266
aF0.000952192
aF0.007473279
aF0.012209955
aF0.011201626
aF0.003356504
aF0.000925427
aF0.000857032
aF0.001115058
aF0.000845979
aF0.001063002
aF0.002144168
aF0.000603519
aF0.008785108
aF0.005311707
aF0.006668456
aF0.000734056
aF0.001706023
aF0.000400784
aF0.000448924
asS'uvig_371543'
p81
(lp82
F0.0
aF0.001341895
aF0.008110604
aF0.001246757
aF0.0
aF0.000158821
aF0.000778207
aF0.016024036
aF0.013549892
aF0.0
aF0.00379289
aF0.005456139
aF0.009941443
aF0.001265882
aF0.000799232
aF0.000642774
aF0.001709755
aF0.000211495
aF0.001125532
aF0.002573002
aF0.030348386
aF0.003833852
aF0.002392463
aF0.0
aF0.0
aF0.000121859
aF0.00026719
aF0.0
asS'uvig_374792'
p83
(lp84
F0.000282588
aF0.000308482
aF0.008792577
aF0.000330772
aF5.16373e-05
aF0.0
aF0.00024575
aF0.0
aF0.00079852
aF0.0
aF0.002925025
aF0.007579609
aF0.001540224
aF0.001745382
aF0.000294454
aF0.0
aF0.0
aF0.0
aF0.000187589
aF0.000142945
aF0.00030176
aF0.013890489
aF0.000680425
aF0.000325291
aF0.0
aF0.0
aF0.0
aF0.0
asS'uvig_596710'
p85
(lp86
F0.000141294
aF9.25445e-05
aF0.00375085
aF0.0
aF0.000103275
aF0.00010588
aF0.000163833
aF0.0
aF0.0
aF0.0
aF6.42863e-05
aF0.000117971
aF0.0
aF3.836e-05
aF8.41297e-05
aF0.000428516
aF0.0
aF0.0
aF0.000125059
aF0.0
aF0.011423753
aF0.0
aF0.0
aF0.0
aF0.0
aF0.000121859
aF0.000133595
aF0.0
asS'uvig_137671'
p87
(lp88
F0.001695526
aF2.077283882
aF0.000706329
aF0.000686988
aF0.001006928
aF0.001085274
aF0.001064915
aF0.030378902
aF0.021709772
aF0.000740593
aF0.005416119
aF0.103342224
aF0.068189901
aF0.014097317
aF0.001430205
aF0.00107129
aF0.000446023
aF0.000845979
aF0.000750355
aF0.001143556
aF0.00461261
aF0.001425654
aF0.00083407
aF0.000650581
aF0.002569197
aF0.001157658
aF0.001469543
aF0.002244619
asS'uvig_409788'
p89
(lp90
F0.001271644
aF0.005722333
aF0.020605319
aF0.001959189
aF0.000619648
aF0.001005864
aF0.001372102
aF0.01635787
aF0.021410327
aF0.000423196
aF0.015685851
aF0.003244191
aF0.027163944
aF0.003490764
aF0.002313567
aF0.000857032
aF0.002527464
aF0.001057474
aF0.003189007
aF0.00314478
aF0.00719912
aF0.0131006
aF0.004828825
aF0.001301162
aF0.000244685
aF0.000853011
aF0.001469543
aF0.0
asS'uvig_106895'
p91
(lp92
F0.001271644
aF0.0016658
aF0.000974247
aF0.00076332
aF0.001549119
aF0.001747026
aF0.001433539
aF0.001335336
aF0.001048058
aF0.001057991
aF0.024541285
aF0.001356662
aF0.000420061
aF0.000690481
aF0.000673038
aF0.001714064
aF0.000594697
aF0.001268968
aF0.001125532
aF0.000857667
aF0.000431085
aF0.021018757
aF0.000395086
aF0.000162645
aF0.000978742
aF0.001096729
aF0.002404707
aF0.001795695
asS'uvig_128497'
p93
(lp94
F0.0
aF0.001218502
aF0.00292274
aF0.001501197
aF0.000129093
aF0.0
aF0.001126352
aF0.000333834
aF0.001896486
aF0.0
aF0.002796453
aF0.001828544
aF0.003360488
aF0.001975542
aF8.41297e-05
aF0.000428516
aF0.0
aF0.0
aF0.000625295
aF0.006861338
aF0.001250147
aF0.001733903
aF0.014003592
aF0.008701522
aF0.0
aF0.0
aF0.0
aF0.001122309
asS'uvig_304445'
p95
(lp96
F0.0
aF0.000724932
aF0.001437014
aF0.000559768
aF0.0
aF0.00010588
aF0.000655332
aF0.002670673
aF0.000698705
aF0.0
aF0.000546433
aF0.009762065
aF0.000840122
aF0.01645646
aF0.0
aF0.0
aF0.004162882
aF0.0
aF0.000125059
aF0.004574225
aF0.00461261
aF0.0
aF0.00054873
aF0.001301162
aF0.0
aF0.000121859
aF0.0
aF0.0
asS'uvig_251681'
p97
(lp98
F0.000282588
aF0.001110534
aF0.00051148
aF0.000661544
aF0.000232368
aF0.000370581
aF0.000675811
aF0.000667668
aF0.00039926
aF0.000423196
aF0.002282163
aF0.001297676
aF0.000560081
aF0.023188648
aF0.000168259
aF0.000857032
aF0.000594697
aF0.000634484
aF0.0
aF0.000285889
aF0.000258651
aF0.000385312
aF0.001031613
aF0.000162645
aF0.0
aF0.000243718
aF0.000667974
aF0.0
asS'uvig_234678'
p99
(lp100
F0.010667684
aF0.072693676
aF0.001193452
aF0.347514298
aF0.001213477
aF0.000211761
aF0.00399343
aF0.0
aF0.000623844
aF0.000211598
aF0.002796453
aF0.00212347
aF0.000840122
aF0.010146232
aF0.001177816
aF0.0
aF0.000148674
aF0.002114947
aF0.001000473
aF0.000571778
aF0.000344868
aF0.000886217
aF0.001316952
aF0.069774818
aF0.0
aF0.000609294
aF0.000801569
aF0.001346771
asS'uvig_194675'
p101
(lp102
F0.002401995
aF0.017768537
aF0.001875425
aF0.006182895
aF0.001807306
aF0.002011727
aF0.001269706
aF0.0
aF0.001097965
aF0.000846392
aF0.068834528
aF0.03792754
aF0.009941443
aF0.014097317
aF0.001598464
aF0.003856644
aF0.001635418
aF0.002749432
aF0.003251536
aF0.002001224
aF0.00030176
aF0.076137604
aF0.001821784
aF0.000325291
aF0.002202169
aF0.002863681
aF0.000935164
aF0.001571233
asS'uvig_588944'
p103
(lp104
F0.000141294
aF0.000246785
aF0.000267918
aF0.00089054
aF5.16373e-05
aF0.000158821
aF0.0
aF0.0
aF0.000149723
aF0.0
aF0.006332198
aF0.000530868
aF0.011481667
aF0.000901461
aF0.000168259
aF0.000214258
aF0.000148674
aF0.0
aF0.000250118
aF0.000285889
aF8.6217e-05
aF0.000404577
aF0.000329238
aF0.000162645
aF0.0
aF0.000243718
aF6.67974e-05
aF0.0
asS'uvig_93945'
p105
(lp106
F0.000353235
aF0.009038509
aF0.000194849
aF0.000356216
aF0.0
aF0.000158821
aF0.000122875
aF0.006009014
aF0.000174676
aF0.0
aF0.001317869
aF0.000530868
aF0.012181769
aF0.00026852
aF0.0
aF0.0
aF0.000594697
aF0.0
aF0.0
aF0.000571778
aF0.000344868
aF0.000269718
aF0.000658476
aF0.000325291
aF0.0
aF0.0
aF0.0
aF0.0
asS'uvig_335993'
p107
(lp108
F0.033769225
aF0.01070431
aF0.003896987
aF0.046893312
aF0.028503798
aF0.034331715
aF0.027708263
aF0.015690202
aF0.019014766
aF0.023487391
aF0.030953841
aF0.011000756
aF0.095353845
aF0.010069512
aF0.024734129
aF0.050564891
aF0.011745273
aF0.035954106
aF0.032452834
aF0.018011012
aF0.00086217
aF0.004604476
aF0.014420627
aF0.084006278
aF0.031564421
aF0.039055741
aF0.028322102
aF0.020426029
asS'ivig_621'
p109
(lp110
F0.0
aF0.000894596
aF0.000779397
aF0.00076332
aF0.000154912
aF5.29402e-05
aF0.000348145
aF0.0
aF0.005015706
aF0.0
aF0.00112501
aF0.001740066
aF0.003220468
aF0.00034524
aF0.000462713
aF0.000428516
aF0.0
aF0.0
aF0.000125059
aF0.000285889
aF0.015950146
aF0.037895412
aF0.002063225
aF0.000894549
aF0.0
aF0.000243718
aF0.000133595
aF0.0
asS'uvig_106649'
p111
(lp112
F0.000141294
aF0.00075578
aF0.044109022
aF0.003409497
aF0.000154912
aF5.29402e-05
aF0.001372102
aF0.000333834
aF0.008609047
aF0.000211598
aF0.002426807
aF0.002329919
aF0.001120163
aF0.001918002
aF0.000841297
aF0.000428516
aF0.000148674
aF0.0
aF0.001000473
aF0.004860114
aF0.06880117
aF0.008881436
aF0.000614578
aF0.000325291
aF0.0
aF0.000365576
aF0.000801569
aF0.0
asS'uvig_296212'
p113
(lp114
F0.000847763
aF0.563657481
aF0.000219206
aF0.000457992
aF0.000154912
aF0.000211761
aF0.00024575
aF0.033717243
aF0.020387222
aF0.000634794
aF0.006508985
aF0.366534579
aF0.032484717
aF0.006099247
aF0.001051621
aF0.000428516
aF0.0
aF0.000634484
aF0.001125532
aF0.000571778
aF0.001293255
aF0.000597233
aF0.000658476
aF0.000243968
aF0.0
aF0.000792082
aF0.0
aF0.0
asS'uvig_322900'
p115
(lp116
F0.000565175
aF0.005120794
aF0.008792577
aF0.003231389
aF0.000154912
aF5.29402e-05
aF0.004177742
aF0.001335336
aF0.001247688
aF0.0
aF0.003648246
aF0.030141482
aF0.005740834
aF0.006732188
aF0.000841297
aF0.0
aF0.000446023
aF0.0
aF0.0
aF0.008004894
aF0.031253664
aF0.0065503
aF0.003511873
aF0.000406613
aF0.000122343
aF0.0
aF0.000400784
aF0.0
asS'uvig_514703'
p117
(lp118
F0.000211941
aF0.000616963
aF0.000438411
aF0.000534324
aF2.58187e-05
aF2.64701e-05
aF8.19165e-05
aF0.0
aF0.000449168
aF0.000105799
aF0.010012587
aF0.000737316
aF0.0
aF0.000901461
aF0.00147227
aF0.000964161
aF0.010035518
aF0.000317242
aF0.000812884
aF0.001000612
aF0.000258651
aF0.000443109
aF0.000351187
aF0.004147454
aF0.0
aF0.000365576
aF0.00026719
aF0.0
asS'uvig_505100'
p119
(lp120
F0.001483585
aF0.001141382
aF9.74247e-05
aF0.000407104
aF0.000309824
aF7.94103e-05
aF0.0
aF0.0
aF0.0
aF0.000423196
aF0.009401868
aF0.017695586
aF0.00014002
aF0.765532271
aF0.000252389
aF0.000321387
aF0.0
aF0.032041453
aF0.000125059
aF0.001000612
aF0.003922874
aF0.00410357
aF0.00496052
aF0.001951743
aF0.028750538
aF0.001157658
aF0.0
aF0.0
asS'uvig_1270'
p121
(lp122
F0.010738331
aF0.075932733
aF0.111429473
aF0.060633078
aF0.002246223
aF0.000291171
aF0.009399921
aF0.003672175
aF0.017168187
aF0.000211598
aF0.079023903
aF0.077654132
aF0.030244391
aF0.013598637
aF0.001009556
aF0.0
aF0.000892046
aF0.000211495
aF0.007315957
aF0.02801713
aF0.011854838
aF0.12235575
aF0.079214675
aF0.038546927
aF0.0
aF0.00298554
aF0.00026719
aF0.001346771
asS'uvig_372112'
p123
(lp124
F0.0
aF0.002791758
aF0.00228948
aF0.00424915
aF0.000103275
aF0.000158821
aF0.001515456
aF0.010015023
aF0.026351171
aF0.0
aF0.002651809
aF0.008287433
aF0.006580956
aF0.034946002
aF0.000168259
aF0.0
aF0.009886844
aF0.0
aF0.000375177
aF0.011292619
aF0.010690909
aF0.001579778
aF0.002502209
aF0.00309026
aF0.0
aF0.000243718
aF0.0
aF0.000448924
asS'uvig_542829'
p125
(lp126
F0.003391052
aF0.001017989
aF0.004530247
aF0.001602973
aF0.001807306
aF0.003229352
aF0.001474497
aF0.000667668
aF0.001497226
aF0.003597168
aF0.00102858
aF0.002388904
aF0.001120163
aF0.000882281
aF0.001934983
aF0.003428128
aF0.001338069
aF0.002114947
aF0.003001418
aF0.00314478
aF0.000431085
aF0.00572188
aF0.0013828
aF0.000487936
aF0.001957483
aF0.003899481
aF0.002003922
aF0.001346771
asS'uvig_563845'
p127
(lp128
F0.0
aF6.16963e-05
aF0.0
aF0.00025444
aF0.0
aF0.0
aF0.0
aF0.0
aF0.028422333
aF0.0
aF0.000257145
aF0.000176956
aF0.0
aF0.004200425
aF0.0
aF0.0
aF0.0
aF0.0
aF0.0
aF0.0
aF0.0
aF3.85312e-05
aF4.38984e-05
aF0.000162645
aF0.0
aF0.0
aF0.0
aF0.0
asS'uvig_198367'
p129
(lp130
F0.0
aF0.000154241
aF9.74247e-05
aF0.000305328
aF5.16373e-05
aF0.0
aF8.19165e-05
aF0.0
aF4.99075e-05
aF0.0
aF0.000289288
aF5.89853e-05
aF0.0
aF0.057041389
aF0.0
aF0.0
aF0.0
aF0.0
aF0.0
aF0.0
aF0.0
aF7.70624e-05
aF8.77968e-05
aF0.0
aF0.0
aF0.000121859
aF0.0
aF0.0
asS'uvig_436944'
p131
(lp132
F0.0
aF0.003208208
aF0.006746659
aF0.004452702
aF0.000103275
aF5.29402e-05
aF0.001372102
aF0.000667668
aF0.002819775
aF0.0
aF0.007746496
aF0.003745566
aF0.005040732
aF0.001572762
aF8.41297e-05
aF0.0
aF0.000446023
aF0.0
aF0.000500236
aF0.009005506
aF0.00086217
aF0.003467806
aF0.011369687
aF0.005367294
aF0.0
aF0.0
aF0.000667974
aF0.0
asS'uvig_462472'
p133
(lp134
F0.002613936
aF0.022195247
aF0.002045918
aF0.001959189
aF0.0
aF5.29402e-05
aF0.000675811
aF0.002670673
aF0.001771717
aF0.0
aF0.004901828
aF0.003922522
aF0.00420061
aF0.002263243
aF0.000252389
aF0.0
aF0.0
aF0.0
aF0.000312648
aF0.003001835
aF0.000646628
aF0.00344854
aF0.00274365
aF0.001382485
aF0.000244685
aF0.000121859
aF0.0
aF0.000897847
asS'uvig_515505'
p135
(lp136
F0.003602993
aF0.034534509
aF0.123437065
aF0.011984129
aF0.000284005
aF0.000158821
aF0.009133692
aF0.017025538
aF0.001497226
aF0.0
aF0.006621486
aF0.036069504
aF0.015682277
aF0.017837422
aF0.002860409
aF0.0
aF0.004757579
aF0.000211495
aF0.001250591
aF0.009148451
aF0.030951905
aF0.017339029
aF0.010096634
aF0.001057194
aF0.0
aF0.000609294
aF0.0
aF0.0
asS'uvig_509342'
p137
(lp138
F0.000141294
aF0.003146512
aF0.002459973
aF0.001602973
aF0.0
aF0.00010588
aF0.002805641
aF0.013353363
aF0.000973197
aF0.000211598
aF0.001092867
aF0.006635845
aF0.003920569
aF0.047623998
aF8.41297e-05
aF0.0
aF0.007731066
aF0.0
aF0.000750355
aF0.017868068
aF0.017157184
aF0.000134859
aF0.001295003
aF0.004391422
aF0.0
aF0.000365576
aF0.000133595
aF0.0
asS'uvig_183077'
p139
(lp140
F0.001059704
aF0.001187654
aF0.01125255
aF0.000915984
aF0.0
aF0.0
aF0.006942425
aF0.000333834
aF0.001771717
aF0.0
aF0.002475022
aF0.037278702
aF0.010361504
aF0.007748729
aF0.001682594
aF0.000321387
aF0.001486743
aF0.0
aF0.000250118
aF0.005288948
aF0.051212901
aF0.00768697
aF0.001470597
aF0.002602324
aF0.0
aF0.000121859
aF0.0
aF0.0
asS'uvig_350279'
p141
(lp142
F0.0
aF0.002745486
aF0.002727891
aF0.001195869
aF5.16373e-05
aF5.29402e-05
aF0.002621329
aF0.018694709
aF0.003069313
aF0.0
aF0.000658934
aF0.005898529
aF0.001960285
aF0.046914337
aF0.000168259
aF0.0
aF0.010853227
aF0.0
aF0.000875414
aF0.015580955
aF0.015001759
aF0.0
aF0.001404749
aF0.003740841
aF0.0
aF0.000609294
aF0.000133595
aF0.000448924
asS'uvig_266663'
p143
(lp144
F0.000423881
aF0.000215937
aF9.74247e-05
aF0.000152664
aF0.000361461
aF0.000370581
aF0.000204791
aF0.0
aF9.9815e-05
aF0.000211598
aF0.00634827
aF5.89853e-05
aF0.0
aF7.67201e-05
aF8.41297e-05
aF0.000857032
aF0.000148674
aF0.000211495
aF0.000500236
aF0.0
aF0.000258651
aF7.70624e-05
aF0.00026339
aF0.0
aF0.000244685
aF0.000121859
aF0.0
aF0.000897847
asS'uvig_397366'
p145
(lp146
F0.003532346
aF0.004149077
aF0.000852466
aF0.017454591
aF0.001136021
aF0.00010588
aF0.001965996
aF0.001335336
aF0.000449168
aF0.0
aF0.002282163
aF0.000619346
aF0.000840122
aF0.000613761
aF0.0
aF0.0
aF0.000148674
aF0.0
aF0.0
aF0.004860114
aF0.000905279
aF0.000385312
aF0.000307289
aF0.089698862
aF0.000244685
aF0.000304647
aF0.0
aF0.000897847
asS'uvig_486069'
p147
(lp148
F0.0
aF0.036848121
aF0.000292274
aF0.000356216
aF0.0
aF5.29402e-05
aF4.09583e-05
aF0.0
aF0.0
aF0.0
aF0.000385718
aF0.000176956
aF0.0
aF3.836e-05
aF0.0
aF0.0
aF0.0
aF0.0
aF0.0
aF0.000285889
aF0.0
aF3.85312e-05
aF4.38984e-05
aF0.023583563
aF0.0
aF0.0
aF0.0
aF0.0
asS'uvig_537728'
p149
(lp150
F0.0
aF4.62722e-05
aF0.0
aF0.000712432
aF0.000232368
aF0.000529402
aF0.000327666
aF0.0
aF4.99075e-05
aF0.000211598
aF0.000128573
aF0.000117971
aF0.0
aF0.002704383
aF0.000715102
aF0.0
aF0.001486743
aF0.000634484
aF0.0
aF0.0
aF8.6217e-05
aF3.85312e-05
aF0.00028534
aF0.000162645
aF0.048692401
aF0.000426506
aF0.0
aF0.005611546
asS'uvig_436116'
p151
(lp152
F0.000353235
aF0.001403591
aF0.002557398
aF0.028751732
aF0.000206549
aF0.0
aF0.000286708
aF0.000667668
aF0.014672811
aF0.0
aF0.005544691
aF0.031026261
aF0.004620671
aF0.002857823
aF8.41297e-05
aF0.0
aF0.000297349
aF0.0
aF0.0027513
aF0.040739195
aF0.00086217
aF0.031402909
aF0.022300391
aF0.01577659
aF0.0
aF0.00097487
aF0.0
aF0.001122309
asS'uvig_174204'
p153
(lp154
F0.002543289
aF0.023444597
aF0.022967867
aF0.021830961
aF0.001807306
aF0.001217624
aF0.002129829
aF0.002670673
aF0.004591492
aF0.000846392
aF0.015042988
aF0.025216211
aF0.0082612
aF0.002589303
aF0.001346075
aF0.002785354
aF0.000743372
aF0.001268968
aF0.00281383
aF0.005288948
aF0.011639296
aF0.016028969
aF0.015671731
aF0.0111412
aF0.000244685
aF0.003290187
aF0.002538302
aF0.002244619
asS'uvig_510781'
p155
(lp156
F0.002684583
aF0.008159337
aF0.011934523
aF0.012493009
aF0.002194586
aF0.002461719
aF0.001576893
aF0.047738274
aF0.008334556
aF0.001904383
aF0.01454477
aF0.006281933
aF0.009521383
aF0.004046985
aF0.007739932
aF0.004178031
aF0.002750475
aF0.001586211
aF0.002876359
aF0.003001835
aF0.004871261
aF0.020826101
aF0.005421453
aF0.002358356
aF0.001712798
aF0.002680893
aF0.003406668
aF0.0
asS'uvig_451553'
p157
(lp158
F0.000353235
aF0.000293057
aF0.002874028
aF0.00038166
aF0.0
aF0.000158821
aF0.00024575
aF0.0
aF0.000499075
aF0.0
aF0.005335761
aF0.326690017
aF0.00014002
aF0.001189161
aF0.000168259
aF0.0
aF0.0
aF0.0
aF0.000125059
aF0.002858891
aF0.000646628
aF0.000809155
aF0.000724324
aF0.000894549
aF0.0
aF0.0
aF0.0
aF0.0
asS'uvig_547729'
p159
(lp160
F0.000211941
aF0.002498701
aF0.013079263
aF0.00076332
aF0.0
aF5.29402e-05
aF0.001454018
aF0.0
aF0.00059889
aF0.000211598
aF0.002025018
aF0.012357418
aF0.002380346
aF0.002282423
aF0.000420648
aF0.0
aF0.000148674
aF0.0
aF0.0
aF0.004574225
aF0.007931964
aF0.003833852
aF0.002414412
aF0.000243968
aF0.0
aF0.0
aF0.0
aF0.000448924
asS'uvig_112338'
p161
(lp162
F0.000989057
aF0.013110466
aF0.007209426
aF0.029794937
aF0.000232368
aF0.00010588
aF0.000593895
aF0.001335336
aF0.001522179
aF0.0
aF0.007135776
aF0.024331431
aF0.003780549
aF0.002742743
aF0.000925427
aF0.000428516
aF0.00104072
aF0.0
aF0.00131312
aF0.007004283
aF0.000775953
aF0.012002461
aF0.012203757
aF0.009677393
aF0.000367028
aF0.002559034
aF0.00026719
aF0.001122309
asS'uvig_313824'
p163
(lp164
F0.003249758
aF0.00408738
aF0.001729288
aF0.002137297
aF0.004182623
aF0.00550578
aF0.005119782
aF0.003338341
aF0.002445469
aF0.003597168
aF0.005207188
aF0.003598103
aF3.099210005
aF0.072653928
aF0.005089846
aF0.006213482
aF0.002527464
aF0.005710358
aF0.006002836
aF0.002573002
aF0.000431085
aF0.001888028
aF0.001273054
aF0.000813226
aF0.004159652
aF0.00706781
aF0.008416474
aF0.005836008
asS'uvig_451559'
p165
(lp166
F0.0
aF0.000308482
aF0.001656219
aF0.000457992
aF0.0
aF5.29402e-05
aF0.000143354
aF0.059756301
aF0.000449168
aF0.0
aF0.001992875
aF0.180937371
aF0.000700102
aF0.001515222
aF4.20648e-05
aF0.0
aF0.0
aF0.0
aF0.0
aF0.000714723
aF0.000732845
aF0.000231187
aF0.000965765
aF0.000243968
aF0.0
aF6.09294e-05
aF0.0
aF0.000448924
asS'uvig_64107'
p167
(lp168
F0.000141294
aF0.000586115
aF0.004116193
aF0.00386749
aF5.16373e-05
aF0.0
aF0.001494976
aF0.0
aF0.00099815
aF0.0
aF0.001976803
aF0.010853293
aF0.001260183
aF0.001534402
aF0.000294454
aF0.000107129
aF0.000148674
aF0.0
aF0.000250118
aF0.002287113
aF0.002069208
aF0.001406388
aF0.002063225
aF0.001789098
aF0.0
aF0.0
aF0.0
aF0.0
asS'uvig_125485'
p169
(lp170
F0.006711457
aF0.003501266
aF0.000243562
aF0.087654617
aF0.000619648
aF0.0
aF0.0
aF0.0
aF4.99075e-05
aF0.0
aF0.000433932
aF5.89853e-05
aF0.0
aF7.67201e-05
aF8.41297e-05
aF0.0
aF0.0
aF0.000211495
aF0.000125059
aF0.000285889
aF0.0
aF7.70624e-05
aF8.77968e-05
aF0.031715826
aF0.0
aF0.000243718
aF0.0
aF0.0
asS'uvig_388303'
p171
(lp172
F0.001412938
aF0.009439535
aF0.002192055
aF0.005979343
aF0.001213477
aF0.001217624
aF0.001290185
aF0.001335336
aF0.001572087
aF0.001481187
aF0.004050035
aF0.007992507
aF0.001820264
aF0.001572762
aF0.001682594
aF0.000857032
aF0.00104072
aF0.002114947
aF0.001250591
aF0.016438622
aF0.000172434
aF0.033945966
aF0.005882387
aF0.011059878
aF0.002202169
aF0.001096729
aF0.000667974
aF0.001346771
asS'uvig_506290'
p173
(lp174
F0.001130351
aF0.0016658
aF0.000487123
aF0.000203552
aF0.001032746
aF0.001588206
aF0.000982998
aF0.0
aF0.000748613
aF0.001481187
aF0.036498532
aF0.001327169
aF0.0
aF0.000901461
aF0.001682594
aF0.000857032
aF0.000743372
aF0.000845979
aF0.003251536
aF0.000857667
aF0.000258651
aF0.011983196
aF0.000702375
aF0.0
aF0.001223427
aF0.001218588
aF0.001068759
aF0.001795695
asS'uvig_425903'
p175
(lp176
F0.00091841
aF0.013156738
aF0.000267918
aF0.002060965
aF0.000258187
aF0.000238231
aF8.19165e-05
aF0.001001502
aF0.000124769
aF0.0
aF0.050641513
aF0.033533136
aF0.005880854
aF0.011776534
aF0.000588908
aF0.000214258
aF0.0
aF0.000317242
aF0.000625295
aF0.000285889
aF8.6217e-05
aF0.055947268
aF0.000131695
aF0.0
aF0.000244685
aF0.000913941
aF0.00026719
aF0.0
asS'uvig_90482'
p177
(lp178
F0.000565175
aF0.00049357
aF0.014418852
aF0.001475753
aF0.000103275
aF0.00010588
aF0.000532457
aF0.0
aF0.001572087
aF0.0
aF0.001108938
aF0.006340918
aF0.002380346
aF0.001745382
aF0.000588908
aF0.000214258
aF0.0
aF0.000211495
aF0.000250118
aF0.000428834
aF0.025692667
aF0.003602665
aF0.001229155
aF0.001219839
aF0.0
aF0.000243718
aF0.0
aF0.0
asS'uvig_202570'
p179
(lp180
F0.0
aF0.000123393
aF0.000146137
aF0.000101776
aF0.0
aF0.0
aF0.0
aF0.0
aF0.039801248
aF0.0
aF0.000482147
aF5.89853e-05
aF0.0
aF0.00805561
aF0.0
aF0.0
aF0.0
aF0.0
aF0.0
aF0.0
aF8.6217e-05
aF3.85312e-05
aF8.77968e-05
aF0.0
aF0.0
aF0.0
aF0.000133595
aF0.0
asS'uvig_168075'
p181
(lp182
F0.003956227
aF0.0104421
aF0.00292274
aF0.003129613
aF0.002917508
aF0.004235215
aF0.004443971
aF0.008679686
aF0.004566538
aF0.004866757
aF0.016730503
aF0.009968514
aF0.010921586
aF0.018642983
aF0.003112799
aF0.00428516
aF0.001412406
aF0.003595411
aF0.005127423
aF0.002715946
aF0.000474194
aF0.053808787
aF0.002348565
aF0.002683647
aF0.002446854
aF0.005666434
aF0.003072681
aF0.002020157
asS'uvig_300711'
p183
(lp184
F0.0
aF0.000817476
aF0.004993015
aF0.000992316
aF0.0
aF5.29402e-05
aF0.001003477
aF0.0
aF0.000823474
aF0.0
aF0.001060724
aF0.001917022
aF0.000280041
aF0.001169981
aF0.000168259
aF0.0
aF0.000148674
aF0.0
aF0.000250118
aF0.001858279
aF0.012889442
aF0.000789889
aF0.000965765
aF0.0
aF0.000489371
aF0.000121859
aF0.0
aF0.0
asS'uvig_140214'
p185
(lp186
F0.000353235
aF0.001311047
aF0.013639455
aF0.002951505
aF0.000258187
aF0.000158821
aF0.000634853
aF0.0
aF0.006363209
aF0.0
aF0.011314384
aF0.012239447
aF0.000980142
aF0.002646843
aF0.0
aF0.0
aF0.000669035
aF0.000211495
aF0.000250118
aF0.005717782
aF0.003060704
aF0.005336568
aF0.010820957
aF0.00309026
aF0.0
aF6.09294e-05
aF0.000133595
aF0.000224462
asS'uvig_232204'
p187
(lp188
F0.0
aF0.002313612
aF0.003799562
aF0.001984633
aF0.000154912
aF0.00010588
aF0.000982998
aF0.000667668
aF0.000748613
aF0.0
aF0.007135776
aF0.006724323
aF0.011761708
aF0.011373754
aF8.41297e-05
aF0.0
aF0.000223012
aF0.0
aF0.000375177
aF0.0
aF0.000344868
aF0.002658651
aF0.001426698
aF0.000406613
aF0.0
aF0.000121859
aF0.0
aF0.000448924
asS'uvig_362220'
p189
(lp190
F0.0
aF0.001434439
aF0.005163508
aF0.000203552
aF5.16373e-05
aF0.0
aF4.09583e-05
aF0.008012018
aF0.005140475
aF0.0
aF0.003117884
aF0.000678331
aF0.005320773
aF0.000652121
aF0.000252389
aF0.000214258
aF0.000297349
aF0.000211495
aF0.000625295
aF0.000571778
aF0.001939883
aF0.003121025
aF0.001141359
aF0.000162645
aF0.0
aF0.0
aF0.0
aF0.0
asS'uvig_396786'
p191
(lp192
F0.0
aF0.000678659
aF0.007379919
aF0.002289961
aF0.0
aF0.0
aF0.000511978
aF0.0
aF0.003393711
aF0.000211598
aF0.002314306
aF0.011118727
aF0.000840122
aF0.001822102
aF0.000168259
aF0.0
aF0.000594697
aF0.0
aF0.000125059
aF0.001143556
aF0.020045454
aF0.002234808
aF0.003072888
aF0.0
aF0.0
aF0.000121859
aF0.0
aF0.0
asS'uvig_505859'
p193
(lp194
F0.000141294
aF0.000154241
aF9.74247e-05
aF0.000457992
aF0.0
aF0.0
aF0.0
aF0.0
aF0.022633061
aF0.0
aF0.000401789
aF0.000648838
aF0.0
aF0.0002877
aF0.0
aF0.000107129
aF0.000446023
aF0.0
aF0.0
aF0.0
aF8.6217e-05
aF0.000154125
aF0.000175594
aF0.0
aF0.0
aF6.09294e-05
aF0.0
aF0.0
asS'uvig_197653'
p195
(lp196
F0.001412938
aF0.002915151
aF0.003775206
aF0.001908301
aF0.000490555
aF0.000344111
aF0.009789024
aF0.001335336
aF0.001297596
aF0.000211598
aF0.003519674
aF0.003450639
aF0.001960285
aF0.002627663
aF0.000546843
aF0.000214258
aF0.000892046
aF0.001057474
aF0.001000473
aF0.000428834
aF0.004741935
aF0.00196509
aF0.001514495
aF0.001057194
aF0.000978742
aF0.000487435
aF0.000667974
aF0.0
asS'uvig_202790'
p197
(lp198
F0.0
aF0.000555267
aF0.00323937
aF0.000865096
aF0.0
aF0.00010588
aF0.000122875
aF0.005341345
aF0.004092417
aF0.0
aF0.002008946
aF0.000884779
aF0.004760691
aF0.001112441
aF0.0
aF0.00107129
aF0.000148674
aF0.0
aF0.000250118
aF0.00157239
aF0.032633136
aF0.004508148
aF0.000790171
aF0.000162645
aF0.0
aF0.0
aF0.0
aF0.0
asS'uvig_258701'
p199
(lp200
F0.002825877
aF0.000740356
aF0.001363945
aF0.000915984
aF0.003046602
aF0.004235215
aF0.003727202
aF0.002670673
aF0.001846578
aF0.00338557
aF0.001735729
aF0.001179706
aF0.0
aF0.004162065
aF0.002860409
aF0.006641998
aF0.001189395
aF0.003595411
aF0.003376595
aF0.001715335
aF0.000258651
aF0.000924748
aF0.000614578
aF0.000162645
aF0.003180911
aF0.004143199
aF0.004275034
aF0.001795695
asS'uvig_538036'
p201
(lp202
F0.0
aF0.002483276
aF0.014564989
aF0.004579922
aF0.000309824
aF0.0
aF0.000634853
aF0.0
aF0.000573936
aF0.0
aF0.027273452
aF0.003509625
aF0.001540224
aF0.000959001
aF0.000210324
aF0.0
aF0.0
aF0.000422989
aF0.000687825
aF0.006718394
aF8.6217e-05
aF0.007012674
aF0.008516291
aF0.00463539
aF0.0
aF0.000304647
aF0.000200392
aF0.0
asS'uvig_528432'
p203
(lp204
F0.000847763
aF0.000447298
aF0.001169096
aF0.000610656
aF0.0
aF0.0
aF0.005816073
aF0.0
aF0.000474121
aF0.0
aF0.002008946
aF0.000766809
aF0.0
aF3.271363957
aF8.41297e-05
aF0.000642774
aF0.0
aF0.000211495
aF0.009942198
aF0.000285889
aF0.001465689
aF7.70624e-05
aF0.000241441
aF0.000813226
aF0.0
aF0.002315317
aF0.0
aF0.0
asS'uvig_186458'
p205
(lp206
F0.000141294
aF0.000154241
aF0.000121781
aF0.000432548
aF0.0
aF0.0
aF8.19165e-05
aF0.0
aF0.003169128
aF0.0
aF0.001655372
aF0.000294926
aF0.0
aF0.000460321
aF0.0
aF0.0
aF0.0
aF0.000211495
aF0.0
aF0.000571778
aF0.0
aF0.000231187
aF0.001273054
aF0.005204648
aF0.0
aF0.0
aF0.0
aF0.0
asS'uvig_280596'
p207
(lp208
F0.014835852
aF0.115603459
aF0.076868069
aF0.077451569
aF0.004414991
aF0.002408779
aF0.019967151
aF0.002670673
aF0.03755541
aF0.00116379
aF0.092749023
aF0.094582909
aF0.031644595
aF0.014902878
aF0.003365188
aF0.002356838
aF0.001784092
aF0.002114947
aF0.006252955
aF0.031733689
aF0.015432844
aF0.06829651
aF0.077941621
aF0.056437906
aF0.002324512
aF0.004265057
aF0.001870328
aF0.004713699
asS'uvig_229980'
p209
(lp210
F0.001412938
aF0.00559894
aF0.039042939
aF0.004681698
aF0.000516373
aF0.001191154
aF0.001699768
aF0.013353363
aF0.029295715
aF0.000846392
aF0.01454477
aF0.01527719
aF0.024083497
aF0.006482848
aF0.003154863
aF0.001499806
aF0.001486743
aF0.001268968
aF0.003376595
aF0.003716558
aF0.044143106
aF0.0214426
aF0.00689205
aF0.001382485
aF0.0
aF0.000853011
aF0.000534379
aF0.000448924
asS'uvig_559686'
p211
(lp212
F0.003532346
aF0.027763339
aF0.036168911
aF0.028828064
aF0.000438917
aF0.0
aF0.008314527
aF0.002670673
aF0.010854886
aF0.0
aF0.021664475
aF0.034683349
aF0.019042765
aF0.005658107
aF0.000294454
aF0.000214258
aF0.000966383
aF0.0
aF0.001813357
aF0.013722676
aF0.004224633
aF0.030921269
aF0.0234198
aF0.015126009
aF0.0
aF0.001949741
aF0.0
aF0.001346771
asS'uvig_460930'
p213
(lp214
F0.000141294
aF0.000508995
aF0.00292274
aF0.000941428
aF2.58187e-05
aF0.0
aF0.000327666
aF0.043732265
aF0.000374306
aF0.0
aF0.003133956
aF0.341878729
aF0.000560081
aF0.002704383
aF0.000210324
aF0.0
aF0.0
aF0.0
aF0.0
aF0.000428834
aF0.00086217
aF0.000732092
aF0.001251105
aF0.000975872
aF0.000367028
aF6.09294e-05
aF0.000133595
aF0.000224462
asS'uvig_436746'
p215
(lp216
F0.0
aF0.001434439
aF0.005114795
aF0.001297645
aF0.000516373
aF5.29402e-05
aF0.001925038
aF0.000333834
aF0.005340105
aF0.0
aF0.003600031
aF0.004541867
aF0.003780549
aF0.002915364
aF0.000252389
aF0.0
aF0.000446023
aF0.0
aF0.001000473
aF0.019583402
aF0.001077713
aF0.004142101
aF0.014376728
aF0.01390617
aF0.000367028
aF0.0
aF0.0
aF0.002244619
asS'uvig_218155'
p217
(lp218
F0.001130351
aF0.004334166
aF0.021457785
aF0.001221313
aF0.000154912
aF5.29402e-05
aF0.000860123
aF0.000667668
aF0.000499075
aF0.000211598
aF0.001928588
aF0.004364911
aF0.004900712
aF0.001246702
aF0.001177816
aF0.0
aF0.000148674
aF0.000422989
aF0.000312648
aF0.000714723
aF0.001336364
aF0.00279351
aF0.007550526
aF0.003578196
aF0.0
aF0.000853011
aF0.0
aF0.000897847
asS'uvig_549878'
p219
(lp220
F0.000282588
aF0.002159371
aF0.081447029
aF0.001195869
aF0.000361461
aF0.000423522
aF0.001146831
aF0.000667668
aF0.001372457
aF0.000634794
aF0.002796453
aF0.002506875
aF0.003080447
aF0.006674648
aF0.001177816
aF0.000857032
aF0.000148674
aF0.000845979
aF0.001500709
aF0.004288336
aF0.003491789
aF0.000789889
aF0.027129215
aF0.000813226
aF0.000244685
aF0.000853011
aF0.000400784
aF0.000897847
asS'uvig_327352'
p221
(lp222
F0.002613936
aF0.002375308
aF0.032466773
aF0.007607759
aF0.00056801
aF0.001217624
aF0.001843122
aF0.004673677
aF0.006188533
aF0.000846392
aF0.00707149
aF0.01595552
aF0.007281057
aF0.012447835
aF0.001808788
aF0.003642386
aF0.00237879
aF0.001480463
aF0.00137565
aF0.020584014
aF0.009526979
aF0.004623741
aF0.001821784
aF0.003496873
aF0.001957483
aF0.000853011
aF0.000534379
aF0.0
asS'uvig_558797'
p223
(lp224
F0.008053748
aF0.053860878
aF0.030737485
aF0.011144477
aF0.004879726
aF0.006088122
aF0.005304095
aF0.005675179
aF0.011653406
aF0.004655159
aF0.024750216
aF0.015926028
aF0.014422094
aF0.005427947
aF0.003365188
aF0.00642774
aF0.001561081
aF0.006556337
aF0.003251536
aF0.006861338
aF0.00172434
aF0.01344738
aF0.011962316
aF0.013174266
aF0.005627765
aF0.005483645
aF0.003339871
aF0.00359139
asS'uvig_244316'
p225
(lp226
F0.000141294
aF0.110467242
aF0.001022959
aF0.021423857
aF0.0
aF7.94103e-05
aF0.000921561
aF0.0
aF0.000773567
aF0.0
aF0.002539308
aF0.006724323
aF0.007841139
aF0.001112441
aF0.000252389
aF0.0
aF0.0
aF0.0
aF0.0
aF0.000571778
aF0.000258651
aF0.005124646
aF0.001777885
aF0.000406613
aF0.0
aF0.0
aF0.0
aF0.000897847
asS'uvig_165405'
p227
(lp228
F0.000565175
aF0.003717203
aF0.000949891
aF0.000610656
aF0.0
aF0.00010588
aF0.000880603
aF0.006009014
aF0.000374306
aF0.0
aF0.000289288
aF0.00312622
aF0.001680244
aF0.045322395
aF0.000336519
aF0.0
aF0.01129925
aF0.0
aF0.000500236
aF0.004002447
aF0.007026686
aF0.001830231
aF0.000526781
aF0.002358356
aF0.000244685
aF0.000121859
aF0.0
aF0.0
asS'uvig_427961'
p229
(lp230
F0.0
aF0.000277633
aF0.011788386
aF0.001475753
aF0.0
aF0.0
aF0.000204791
aF0.0
aF0.004666353
aF0.0
aF0.000771435
aF0.000766809
aF0.00014002
aF0.000632941
aF8.41297e-05
aF0.0
aF0.0
aF0.0
aF0.0
aF0.0
aF0.005647214
aF0.000558702
aF0.000482882
aF0.0
aF0.0
aF0.0
aF0.0
aF0.0
asS'uvig_44226'
p231
(lp232
F0.0
aF0.001449863
aF0.000779397
aF0.004172818
aF0.0
aF0.000423522
aF0.000409583
aF0.000667668
aF0.000449168
aF0.000211598
aF0.001317869
aF0.001533617
aF0.020582989
aF0.001112441
aF0.000168259
aF0.0
aF0.000148674
aF0.000422989
aF0.000250118
aF0.000571778
aF0.0
aF0.00065503
aF0.000987714
aF0.000325291
aF0.0
aF0.000609294
aF0.000534379
aF0.001346771
asS'uvig_418142'
p233
(lp234
F0.000141294
aF0.001002565
aF0.000608904
aF0.000661544
aF0.0
aF0.0
aF0.00022527
aF0.000667668
aF0.000249538
aF0.0
aF0.001783944
aF0.006016499
aF0.0
aF0.179237318
aF8.41297e-05
aF0.000214258
aF0.0
aF0.000105747
aF0.000250118
aF0.000857667
aF8.6217e-05
aF0.000288984
aF0.000329238
aF0.000325291
aF0.0
aF0.0
aF0.0
aF0.0
asS'uvig_523481'
p235
(lp236
F0.000141294
aF0.000616963
aF0.005041727
aF0.002544401
aF0.0
aF0.0
aF0.001105873
aF0.000667668
aF0.002420515
aF0.0
aF0.001253582
aF0.003480132
aF0.003920569
aF0.002167343
aF0.000673038
aF0.000428516
aF0.000297349
aF0.0
aF0.0
aF0.002001224
aF0.001939883
aF0.001406388
aF0.000658476
aF0.001219839
aF0.0
aF6.09294e-05
aF0.000133595
aF0.0
asS'uvig_512899'
p237
(lp238
F0.001483585
aF0.001341895
aF0.005748056
aF0.001628417
aF0.000284005
aF7.94103e-05
aF0.000737249
aF0.0
aF0.002195931
aF0.0
aF0.013917978
aF0.002152963
aF0.002660386
aF0.002742743
aF0.000588908
aF0.000107129
aF0.000297349
aF0.000317242
aF0.000250118
aF0.004002447
aF0.000560411
aF0.002311871
aF0.005728742
aF0.001626453
aF0.000122343
aF0.000548365
aF0.0
aF0.000448924
asS'uvig_4984'
p239
(lp240
F0.000706469
aF0.002113099
aF0.007160714
aF0.002442625
aF0.000232368
aF2.64701e-05
aF0.00094204
aF0.000333834
aF0.001322549
aF0.0
aF0.052618316
aF0.0020055
aF0.005320773
aF0.006770548
aF4.20648e-05
aF0.0
aF0.0
aF0.0
aF0.0
aF0.010292007
aF0.009397654
aF0.003429275
aF0.007265186
aF0.00618052
aF0.000367028
aF0.000121859
aF0.0
aF0.000224462
asS'uvig_87564'
p241
(lp242
F0.000423881
aF0.006262175
aF9.74247e-05
aF0.001806525
aF0.000258187
aF0.000423522
aF0.000368624
aF0.000333834
aF0.000224584
aF0.000634794
aF0.023303775
aF0.011679087
aF0.002800407
aF0.004123705
aF0.0
aF0.001285548
aF0.000446023
aF0.001480463
aF0.000625295
aF0.0
aF0.0
aF0.027626853
aF4.38984e-05
aF0.0
aF0.001223427
aF0.001096729
aF0.000133595
aF0.0
asS'uvig_296393'
p243
(lp244
F0.000282588
aF0.00401026
aF0.012007591
aF0.010610152
aF0.00116184
aF0.000211761
aF0.00118779
aF0.002003005
aF0.017218095
aF0.0
aF0.016360857
aF0.025688093
aF0.015962318
aF0.002244063
aF0.000336519
aF0.001499806
aF0.002155778
aF0.0
aF0.002626241
aF0.028160075
aF0.001810557
aF0.018244512
aF0.050044184
aF0.020737271
aF0.0
aF0.00097487
aF0.0
aF0.002918004
asS'uvig_197346'
p245
(lp246
F0.000141294
aF0.000246785
aF0.006624878
aF0.000356216
aF5.16373e-05
aF0.0
aF0.000286708
aF0.0
aF0.000274491
aF0.0
aF0.000530362
aF0.004777808
aF0.0
aF0.000805561
aF0.000336519
aF0.001285548
aF0.0
aF0.0
aF0.000125059
aF0.0
aF0.010734017
aF0.000192656
aF0.000417035
aF8.13226e-05
aF0.0
aF0.0
aF0.0
aF0.0
asS'uvig_35295'
p247
(lp248
F0.003461699
aF0.022951027
aF0.013834304
aF0.015749843
aF0.001265114
aF0.000423522
aF0.002682766
aF0.0
aF0.00311922
aF0.000211598
aF0.015444777
aF0.013419153
aF0.010921586
aF0.004027805
aF0.000462713
aF0.000214258
aF0.000371686
aF0.000422989
aF0.000937943
aF0.009005506
aF0.001638123
aF0.0214426
aF0.01569368
aF0.011547814
aF0.001223427
aF0.001888811
aF0.001068759
aF0.000448924
asS'uvig_433958'
p249
(lp250
F0.007629867
aF0.038066623
aF0.105778842
aF0.054322963
aF0.003433882
aF0.003864634
aF0.007413445
aF0.005007511
aF0.015246748
aF0.002327579
aF0.03718961
aF0.102575416
aF0.022403253
aF0.009992792
aF0.003028669
aF0.004070902
aF0.00341951
aF0.004652884
aF0.01094267
aF0.01729629
aF0.012587683
aF0.032327657
aF0.039552465
aF0.030821277
aF0.004649023
aF0.004386916
aF0.00414144
aF0.005387084
asS'uvig_216666'
p251
(lp252
F0.000141294
aF0.002822606
aF0.010180879
aF0.002747953
aF5.16373e-05
aF0.000185291
aF0.000593895
aF0.256050743
aF0.002146023
aF0.000423196
aF0.007312564
aF0.565609926
aF0.002100305
aF0.004373045
aF0.001177816
aF0.0
aF0.000297349
aF0.0
aF0.000750355
aF0.004574225
aF0.001638123
aF0.002562323
aF0.003753314
aF0.005123326
aF0.00134577
aF0.000913941
aF0.000133595
aF0.001346771
asS'uvig_379756'
p253
(lp254
F0.0
aF0.000370178
aF0.009645043
aF0.000407104
aF0.0
aF0.0
aF0.00047102
aF0.0
aF0.000848428
aF0.0
aF0.004050035
aF0.011295683
aF0.000280041
aF0.000939821
aF0.0053843
aF0.000214258
aF7.43372e-05
aF0.0
aF0.0
aF0.000285889
aF0.001681232
aF0.002735714
aF0.000570679
aF0.000325291
aF0.0
aF0.000121859
aF0.0
aF0.0
asS'uvig_331758'
p255
(lp256
F0.000141294
aF0.001110534
aF0.003263727
aF0.0006361
aF0.000206549
aF5.29402e-05
aF0.000532457
aF0.000667668
aF0.001896486
aF0.000211598
aF0.018691234
aF0.002300426
aF0.000980142
aF0.001131621
aF0.000925427
aF0.000428516
aF0.000148674
aF0.0
aF0.000937943
aF0.002858891
aF0.006552492
aF0.001059607
aF0.000921867
aF0.005448616
aF0.0
aF0.000487435
aF0.0
aF0.000224462
asS'uvig_92124'
p257
(lp258
F0.001271644
aF0.010981943
aF0.008573371
aF0.004936138
aF0.000103275
aF0.000264701
aF0.00047102
aF0.000667668
aF0.00252033
aF0.0
aF0.009032222
aF0.006783308
aF0.001820264
aF0.002474223
aF0.000673038
aF0.0
aF7.43372e-05
aF0.0
aF0.001125532
aF0.003573614
aF0.0
aF0.004893459
aF0.009482056
aF0.006343165
aF0.0
aF0.000487435
aF0.000534379
aF0.0
asS'uvig_235440'
p259
(lp260
F0.000282588
aF0.003053967
aF0.017731291
aF0.001602973
aF0.000206549
aF0.0
aF0.00540649
aF0.0
aF0.001422364
aF0.0
aF0.003133956
aF0.026572872
aF0.009521383
aF0.002301603
aF0.000252389
aF0.0
aF7.43372e-05
aF0.000211495
aF0.001000473
aF0.007719005
aF0.007112903
aF0.001676106
aF0.027370657
aF0.001219839
aF0.000244685
aF0.0
aF0.0
aF0.000448924
asS'uvig_541910'
p261
(lp262
F0.000423881
aF0.000431874
aF0.000146137
aF0.000407104
aF5.16373e-05
aF0.000211761
aF0.000348145
aF0.0
aF0.000274491
aF0.0
aF0.00102858
aF0.107412209
aF0.0
aF0.00015344
aF0.000420648
aF0.000214258
aF0.0
aF0.000422989
aF0.000125059
aF0.000285889
aF0.0
aF0.000154125
aF0.000131695
aF0.000325291
aF0.000734056
aF0.329749873
aF0.000534379
aF0.0
asS'uvig_305873'
p263
(lp264
F0.000565175
aF0.001912586
aF0.009011783
aF0.002569845
aF0.0
aF0.0
aF0.000307187
aF0.000667668
aF0.001222734
aF0.0
aF0.001510727
aF0.011030249
aF0.000560081
aF0.002205703
aF0.000168259
aF0.0
aF0.0
aF0.0
aF0.0
aF0.001143556
aF0.020088562
aF0.001945824
aF0.001492546
aF0.000894549
aF0.0
aF0.0
aF0.0
aF0.000448924
asS'uvig_559112'
p265
(lp266
F0.000141294
aF0.000123393
aF0.004140549
aF5.0888e-05
aF0.000671285
aF0.000635282
aF0.000409583
aF0.000667668
aF0.000349353
aF0.001057991
aF0.000642863
aF0.00056036
aF0.000280041
aF0.000537041
aF0.000336519
aF0.000214258
aF0.000148674
aF0.000634484
aF0.000625295
aF0.000285889
aF0.0
aF0.015990438
aF0.000790171
aF0.0
aF0.000244685
aF0.001218588
aF0.000534379
aF0.0
asS'uvig_524389'
p267
(lp268
F0.0
aF0.000154241
aF0.007550412
aF0.000152664
aF0.0
aF5.29402e-05
aF0.000204791
aF0.0
aF9.9815e-05
aF0.0
aF0.000225002
aF0.000825794
aF0.0
aF7.67201e-05
aF8.41297e-05
aF0.000214258
aF0.0
aF0.000211495
aF0.0
aF0.000285889
aF0.01814868
aF0.0
aF0.000526781
aF0.0
aF0.0
aF0.000121859
aF0.000133595
aF0.0
asS'uvig_426811'
p269
(lp270
F0.000282588
aF0.000987141
aF0.000779397
aF0.00076332
aF0.0
aF0.000317641
aF0.000204791
aF0.0
aF0.000499075
aF0.000423196
aF0.001671443
aF0.00100275
aF1.672402833
aF0.00034524
aF0.000841297
aF0.000428516
aF0.0
aF0.0
aF0.000375177
aF0.001143556
aF0.000172434
aF0.000346781
aF0.000395086
aF0.000487936
aF0.000244685
aF0.000243718
aF0.0
aF0.000897847
asS'uvig_55870'
p271
(lp272
F0.000989057
aF0.002637517
aF0.001583151
aF0.000356216
aF0.001136021
aF0.000767633
aF0.000962519
aF0.000667668
aF0.000973197
aF0.000528995
aF0.001591085
aF0.000737316
aF0.000840122
aF0.035156983
aF0.000841297
aF0.000642774
aF0.0
aF0.000422989
aF0.000500236
aF0.001429445
aF0.000431085
aF0.00048164
aF0.000351187
aF0.000325291
aF0.000244685
aF0.000365576
aF0.000667974
aF0.0
asS'uvig_460146'
p273
(lp274
F0.000141294
aF0.001064261
aF0.008549015
aF0.003638494
aF0.000361461
aF0.000211761
aF0.000122875
aF0.0
aF0.000499075
aF0.000423196
aF0.002266091
aF0.000471882
aF0.000700102
aF0.002128983
aF0.000252389
aF0.0
aF0.000446023
aF0.000845979
aF0.001250591
aF0.000571778
aF0.040737535
aF0.000866951
aF0.019644537
aF0.000487936
aF0.0
aF0.0
aF0.000801569
aF0.0
asS'uvig_107420'
p275
(lp276
F0.004380109
aF0.014359816
aF0.001899781
aF0.008676408
aF0.003046602
aF0.004208745
aF0.004362055
aF0.002670673
aF0.001946393
aF0.003808766
aF0.002539308
aF0.009585109
aF0.003220468
aF0.006137607
aF0.00260802
aF0.003642386
aF0.002973487
aF0.00444139
aF0.00412695
aF0.002287113
aF0.000646628
aF0.002215543
aF0.000460933
aF0.0
aF0.004649023
aF0.003594834
aF0.002671896
aF0.004040313
asS'uvig_436701'
p277
(lp278
F0.001978114
aF0.008837996
aF0.003945699
aF0.00374027
aF0.002581866
aF0.00280583
aF0.002559891
aF0.00166917
aF0.002445469
aF0.003808766
aF0.005239331
aF0.004836794
aF0.007981159
aF0.00849675
aF0.003281058
aF0.002571096
aF0.001338069
aF0.003172421
aF0.004001891
aF0.002287113
aF0.000517302
aF0.0047586
aF0.004916622
aF0.001870421
aF0.00269154
aF0.002924611
aF0.001736733
aF0.004713699
asS'uvig_55294'
p279
(lp280
F0.000777116
aF0.001742921
aF0.004725097
aF0.002976949
aF0.000826197
aF0.000582342
aF0.000982998
aF0.002670673
aF0.000524029
aF0.000423196
aF0.012841183
aF0.015542623
aF0.019602846
aF0.018029222
aF0.000588908
aF0.000428516
aF0.0
aF0.000422989
aF0.001125532
aF0.002001224
aF0.000560411
aF0.004989787
aF0.005311707
aF0.001301162
aF0.000489371
aF0.000121859
aF0.000400784
aF0.001346771
asS'uvig_204467'
p281
(lp282
F0.00296717
aF2.086954778
aF0.001753644
aF0.001882857
aF0.003253151
aF0.003229352
aF0.002785162
aF0.001335336
aF0.002620145
aF0.004655159
aF0.002860739
aF0.002536367
aF0.00406059
aF0.251047325
aF0.147100765
aF0.004499418
aF0.001635418
aF0.002326442
aF0.004377068
aF0.002573002
aF8.6217e-05
aF0.145859767
aF0.001207206
aF0.000569258
aF0.002936225
aF0.005483645
aF0.003206276
aF0.002244619
asS'uvig_12813'
p283
(lp284
F0.0
aF0.000663235
aF0.046471571
aF0.00025444
aF5.16373e-05
aF0.0
aF0.002785162
aF0.000667668
aF0.002071162
aF0.0
aF0.009064365
aF0.010410903
aF0.002380346
aF0.002800283
aF0.000210324
aF0.000642774
aF0.001412406
aF0.0
aF0.0
aF0.000714723
aF0.012285923
aF0.008476859
aF0.001821784
aF0.001138517
aF0.0
aF0.0
aF0.0
aF0.0
asS'uvig_306625'
p285
(lp286
F0.000423881
aF0.002375308
aF0.001071671
aF0.00101776
aF0.000154912
aF0.000529402
aF0.000778207
aF0.000667668
aF0.000149723
aF0.000423196
aF0.002571451
aF0.002477382
aF0.00014002
aF1.007200564
aF0.000588908
aF0.0
aF0.0
aF0.000422989
aF0.000375177
aF0.001143556
aF0.000172434
aF0.000558702
aF0.000307289
aF0.000813226
aF0.000244685
aF0.000731153
aF0.000133595
aF0.0
asS'uvig_401215'
p287
(lp288
F0.003602993
aF0.006524385
aF0.001875425
aF0.002340849
aF0.004079348
aF0.003361702
aF0.003481452
aF0.005007511
aF0.002195931
aF0.004126163
aF0.045128965
aF0.011354668
aF0.003780549
aF0.004526486
aF0.002355631
aF0.004178031
aF0.001709755
aF0.003701158
aF0.004314539
aF0.003430669
aF8.6217e-05
aF0.043347573
aF0.001053562
aF0.001057194
aF0.003914967
aF0.002254388
aF0.002471504
aF0.002244619
asS'uvig_392479'
p289
(lp290
F0.000141294
aF0.00075578
aF0.014102222
aF0.000788764
aF0.000309824
aF0.000476462
aF0.00118779
aF0.000667668
aF0.000948243
aF0.000211598
aF0.003680389
aF0.010764815
aF0.000280041
aF0.002090623
aF0.000757167
aF0.000214258
aF0.00052036
aF0.000211495
aF0.000500236
aF0.000285889
aF0.007457771
aF0.002986166
aF0.002129073
aF0.000325291
aF0.000489371
aF0.0
aF0.000400784
aF0.000448924
asS'uvig_186796'
p291
(lp292
F0.0
aF0.000555267
aF0.000340986
aF5.0888e-05
aF5.16373e-05
aF0.00010588
aF4.09583e-05
aF0.0
aF0.000449168
aF0.0
aF0.000257145
aF0.000235941
aF0.0
aF0.010414753
aF0.0
aF0.0
aF0.0
aF0.0
aF0.0
aF0.000285889
aF0.0
aF0.0
aF0.000307289
aF0.003252905
aF0.0
aF0.000121859
aF0.000400784
aF0.0
asS'uvig_546340'
p293
(lp294
F0.003532346
aF0.001850889
aF0.000901178
aF0.001272201
aF0.004285897
aF0.006035182
aF0.004259659
aF0.00901352
aF0.002670052
aF0.006136345
aF0.001205368
aF0.000943765
aF0.000560081
aF0.034773382
aF0.003869966
aF0.007070514
aF0.001784092
aF0.006556337
aF0.004752245
aF0.002858891
aF4.31085e-05
aF0.000770624
aF0.000438984
aF0.0
aF0.006117136
aF0.00402134
aF0.004542224
aF0.002020157
asS'uvig_556735'
p295
(lp296
F0.000211941
aF0.000663235
aF0.003677782
aF0.001272201
aF0.000103275
aF5.29402e-05
aF0.000675811
aF0.0
aF0.001696856
aF0.0
aF0.002217876
aF0.001976007
aF0.005460793
aF0.000632941
aF0.0
aF0.0
aF0.000148674
aF0.0
aF6.25295e-05
aF0.003001835
aF0.00517302
aF0.002157746
aF0.003489923
aF0.002683647
aF0.0
aF0.0
aF0.0
aF0.001346771
asS'uvig_851'
p297
(lp298
F0.00183682
aF0.002267339
aF0.034756253
aF0.001246757
aF0.001910581
aF0.002594069
aF0.003092349
aF0.002003005
aF0.001796671
aF0.002539177
aF0.002217876
aF0.016604359
aF0.001680244
aF0.001687842
aF0.003869966
aF0.00321387
aF0.002081441
aF0.003806905
aF0.004001891
aF0.002573002
aF0.000603519
aF0.001155935
aF0.001404749
aF0.000487936
aF0.002202169
aF0.004508775
aF0.001870328
aF0.001795695
asS'uvig_436340'
p299
(lp300
F0.001695526
aF0.001233926
aF0.006771015
aF0.001475753
aF0.000826197
aF0.001323505
aF0.00141306
aF0.000333834
aF0.003094266
aF0.000634794
aF0.002041089
aF0.004099478
aF0.001260183
aF0.003529124
aF0.001346075
aF0.00107129
aF0.00104072
aF0.001268968
aF0.000125059
aF0.003430669
aF0.055480643
aF0.004084305
aF0.001185257
aF0.000162645
aF0.000734056
aF0.00097487
aF0.000935164
aF0.000897847
asS'uvig_448159'
p301
(lp302
F0.006216928
aF0.028272334
aF0.003580357
aF0.001323089
aF0.003356426
aF0.004129335
aF0.003133307
aF0.001335336
aF0.002370607
aF0.002115981
aF0.003953606
aF0.002506875
aF0.009381362
aF0.004507305
aF0.002187372
aF0.005570708
aF0.001486743
aF0.0040184
aF0.003814302
aF0.003430669
aF0.001034604
aF0.001021076
aF0.000614578
aF0.000569258
aF0.003425596
aF0.002741823
aF0.002137517
aF0.000897847
asS'uvig_534725'
p303
(lp304
F0.000777116
aF0.000293057
aF0.005626275
aF0.000407104
aF0.000335643
aF0.000555872
aF0.000962519
aF0.000333834
aF0.000349353
aF0.001057991
aF0.000353575
aF0.00112072
aF0.0
aF0.00023016
aF0.000210324
aF0.000428516
aF0.0
aF0.000105747
aF6.25295e-05
aF0.000428834
aF0.041125511
aF0.004623741
aF0.000812121
aF0.0
aF0.0
aF0.000182788
aF0.000601177
aF0.0
asS'uvig_106252'
p305
(lp306
F0.000141294
aF0.001264774
aF0.004237973
aF0.002060965
aF0.001678213
aF0.0
aF0.000430062
aF0.000333834
aF0.005664504
aF0.000105799
aF0.004901828
aF0.004925272
aF0.001400203
aF0.000460321
aF0.000336519
aF0.0
aF0.000297349
aF0.0
aF0.000250118
aF0.006718394
aF0.001207038
aF0.005972332
aF0.015276646
aF0.001789098
aF0.0
aF0.0
aF0.000667974
aF0.001571233
asS'uvig_518634'
p307
(lp308
F0.001130351
aF0.000987141
aF0.00114474
aF0.000559768
aF0.001807306
aF0.001852907
aF0.002150309
aF0.000667668
aF0.001347503
aF0.001692785
aF0.02376985
aF0.001297676
aF0.0
aF0.000997361
aF0.001430205
aF0.002785354
aF0.00104072
aF0.002537937
aF0.001000473
aF0.0
aF0.000258651
aF0.000886217
aF0.000614578
aF0.000325291
aF0.001957483
aF0.000853011
aF0.004675819
aF0.001795695
asS'uvig_238269'
p309
(lp310
F0.000777116
aF0.221890776
aF0.001047315
aF0.000559768
aF0.000361461
aF0.000582342
aF0.000737249
aF0.003004507
aF0.003418665
aF0.0
aF0.001976803
aF0.024921284
aF0.010641545
aF0.003279784
aF0.000504778
aF0.000642774
aF0.000446023
aF0.001480463
aF0.000750355
aF0.0
aF0.00116393
aF0.000866951
aF0.000504832
aF0.000569258
aF0.000489371
aF0.000487435
aF0.000534379
aF0.000448924
asS'uvig_297218'
p311
(lp312
F0.000141294
aF0.000987141
aF0.004603316
aF0.004071042
aF0.000206549
aF0.0
aF0.000778207
aF0.000667668
aF0.001247688
aF0.0
aF0.002844668
aF0.002388904
aF0.004620671
aF0.001745382
aF8.41297e-05
aF0.0
aF0.000594697
aF0.0
aF0.001000473
aF0.003573614
aF0.00517302
aF0.003352212
aF0.00412645
aF0.009758716
aF0.0
aF0.0
aF0.0
aF0.0
asS'uvig_22024'
p313
(lp314
F0.0
aF0.002143947
aF0.002679179
aF0.00076332
aF0.000206549
aF0.000264701
aF0.000184312
aF0.0
aF0.00099815
aF0.000211598
aF0.006460771
aF0.00368658
aF0.00434063
aF0.00790217
aF0.0
aF0.0
aF0.0
aF0.000211495
aF0.000250118
aF0.001286501
aF0.000258651
aF0.0017917
aF0.00109746
aF0.000406613
aF0.0
aF0.0
aF0.000133595
aF0.000224462
asS'uvig_532722'
p315
(lp316
F7.06469e-05
aF0.000848324
aF0.001339589
aF0.001119536
aF0.0
aF5.29402e-05
aF0.005631761
aF0.0
aF0.000573936
aF0.0
aF0.001526799
aF0.001504125
aF0.000560081
aF1.736636031
aF0.000378584
aF0.000642774
aF0.0
aF0.000105747
aF0.0082539
aF0.0
aF0.002845161
aF0.000558702
aF0.000592628
aF0.000650581
aF0.000122343
aF0.0010358
aF0.000400784
aF0.0
asS'uvig_568287'
p317
(lp318
F0.007417926
aF0.010611765
aF0.053997627
aF0.048572616
aF0.005473555
aF0.005135199
aF0.016444741
aF0.005675179
aF0.029645068
aF0.005501551
aF0.0295074
aF0.191997112
aF0.016102338
aF0.014423378
aF0.009380461
aF0.007927547
aF0.019104653
aF0.007402316
aF0.019509218
aF0.008433728
aF0.652317858
aF0.010885057
aF0.026602435
aF0.006587133
aF0.004649023
aF0.005666434
aF0.005009806
aF0.006733856
asS'uvig_89698'
p319
(lp320
F0.0
aF0.01395879
aF0.000389699
aF0.002926061
aF0.000309824
aF0.000317641
aF0.000286708
aF0.003338341
aF0.00039926
aF0.000211598
aF0.093295456
aF0.032146982
aF0.004620671
aF0.02456961
aF0.000757167
aF0.0
aF0.000297349
aF0.0
aF0.002438652
aF0.000285889
aF0.000431085
aF0.151716506
aF0.000175594
aF0.000487936
aF0.000244685
aF0.001157658
aF0.000400784
aF0.000448924
asS'ivig_2749'
p321
(lp322
F0.001130351
aF0.007557798
aF0.029324828
aF0.001043204
aF0.00077456
aF0.000529402
aF0.000655332
aF0.027374395
aF0.029769836
aF0.000423196
aF0.016634074
aF0.002713323
aF0.045226567
aF0.004488125
aF0.002650085
aF0.000857032
aF0.002973487
aF0.001057474
aF0.004877305
aF0.004002447
aF0.012415249
aF0.019246322
aF0.007265186
aF0.001789098
aF0.000734056
aF0.001218588
aF0.001202353
aF0.000448924
asS'uvig_371255'
p323
(lp324
F0.0
aF0.000323906
aF0.00063326
aF0.001857413
aF0.0
aF0.0
aF0.000143354
aF0.0
aF0.000249538
aF0.0
aF0.000867865
aF0.000117971
aF0.0
aF0.000556221
aF8.41297e-05
aF0.002999612
aF0.0
aF0.0
aF0.0
aF0.0
aF0.055782402
aF0.004450351
aF0.000702375
aF0.000162645
aF0.0
aF0.0
aF0.0
aF0.0
asS'uvig_462314'
p325
(lp326
F0.001130351
aF0.019110432
aF0.001169096
aF0.002315405
aF0.000929472
aF0.001376445
aF0.001679289
aF0.000667668
aF0.002270792
aF0.001481187
aF0.004033964
aF0.003450639
aF0.001540224
aF0.006559568
aF0.000588908
aF0.00214258
aF0.000297349
aF0.001480463
aF0.001250591
aF0.002287113
aF8.6217e-05
aF0.003814586
aF0.004192298
aF0.000569258
aF0.001712798
aF0.001827882
aF0.002671896
aF0.001122309
asS'uvig_440891'
p327
(lp328
F0.0
aF0.00049357
aF0.00323937
aF0.005699458
aF0.0
aF0.0
aF0.000204791
aF0.0
aF0.00039926
aF0.0
aF0.004258966
aF0.003303176
aF0.002660386
aF0.001208341
aF0.0
aF0.0
aF0.0
aF0.0
aF0.000812884
aF0.006575449
aF0.000344868
aF0.000500905
aF0.007111542
aF0.000813226
aF0.0
aF0.0
aF0.0
aF0.000448924
asS'uvig_382713'
p329
(lp330
F0.00091841
aF0.025372607
aF0.013761236
aF0.007633203
aF0.00077456
aF0.000423522
aF0.001310664
aF0.002003005
aF0.001896486
aF0.000211598
aF0.00604291
aF0.005279183
aF0.004760691
aF0.001169981
aF0.000757167
aF0.000214258
aF0.000371686
aF0.000211495
aF0.000687825
aF0.001143556
aF0.000603519
aF0.006820018
aF0.005487301
aF0.005042003
aF0.000244685
aF0.000365576
aF0.000935164
aF0.0
asS'uvig_303877'
p331
(lp332
F0.000282588
aF0.001048837
aF0.001022959
aF0.000686988
aF0.001290933
aF0.002038197
aF0.001597372
aF0.001335336
aF0.000548983
aF0.000423196
aF0.061055889
aF0.000943765
aF0.0
aF0.001572762
aF0.001430205
aF0.00428516
aF0.00104072
aF0.001268968
aF0.001000473
aF0.001858279
aF4.31085e-05
aF0.000866951
aF0.001273054
aF0.000325291
aF0.000734056
aF0.001584164
aF0.001870328
aF0.001795695
asS'uvig_433285'
p333
(lp334
F0.00183682
aF0.002575821
aF0.023187073
aF0.005470462
aF0.000438917
aF0.000317641
aF0.001290185
aF0.003672175
aF0.012501834
aF0.0
aF0.003985749
aF0.011738072
aF0.001820264
aF0.011872434
aF0.000715102
aF0.000964161
aF0.000594697
aF0.000211495
aF0.000375177
aF0.00314478
aF0.016208797
aF0.002851307
aF0.004894672
aF0.008782844
aF0.000244685
aF0.000853011
aF0.000400784
aF0.0
asS'uvig_98916'
p335
(lp336
F0.0
aF0.002035978
aF0.00457896
aF0.007200655
aF0.000154912
aF5.29402e-05
aF0.002027434
aF0.0
aF0.002071162
aF0.0
aF0.003567888
aF0.014009006
aF0.001260183
aF0.000479501
aF0.0
aF0.0
aF0.00104072
aF0.0
aF0.000500236
aF0.000285889
aF0.048885042
aF0.001271529
aF0.001777885
aF0.003578196
aF0.0
aF0.000121859
aF0.001469543
aF0.0
asS'uvig_567821'
p337
(lp338
F0.000423881
aF9.25445e-05
aF0.006405672
aF0.000407104
aF5.16373e-05
aF0.00010588
aF0.000286708
aF0.0
aF0.000224584
aF0.000211598
aF0.000128573
aF0.000648838
aF0.000560081
aF0.0
aF0.000336519
aF0.000214258
aF0.0
aF0.0
aF0.000125059
aF0.0
aF0.014010263
aF0.000597233
aF0.000109746
aF0.000162645
aF0.000244685
aF0.0
aF0.0
aF0.0
asS'uvig_149330'
p339
(lp340
F0.000423881
aF0.001650376
aF0.000340986
aF0.000941428
aF0.000671285
aF0.000847043
aF0.002539412
aF0.001001502
aF0.001497226
aF0.001269589
aF0.0032786
aF0.001297676
aF0.0
aF0.004814186
aF0.002019113
aF0.000857032
aF0.000966383
aF0.000845979
aF0.001250591
aF0.001715335
aF0.000172434
aF0.000635764
aF0.000746273
aF0.000162645
aF0.000734056
aF0.000853011
aF0.001068759
aF0.0
asS'uvig_12784'
p341
(lp342
F0.0
aF0.000663235
aF0.008183673
aF0.00564857
aF0.0
aF0.0
aF0.002477975
aF0.0
aF0.00059889
aF0.0
aF0.00143037
aF0.006635845
aF0.003640529
aF0.001553582
aF0.000378584
aF0.0
aF0.000148674
aF0.0
aF6.25295e-05
aF0.000285889
aF0.011897947
aF0.005355833
aF0.00469713
aF0.000894549
aF0.000489371
aF0.000121859
aF0.0
aF0.0
asS'uvig_169825'
p343
(lp344
F0.0
aF0.000123393
aF0.003970056
aF0.000407104
aF0.0
aF0.0
aF0.000163833
aF0.0
aF0.000449168
aF0.0
aF0.000385718
aF0.000412897
aF0.0
aF0.00030688
aF8.41297e-05
aF0.0
aF0.0
aF0.0
aF0.0
aF0.001715335
aF0.0
aF0.000423843
aF0.000109746
aF0.001789098
aF0.0
aF0.0
aF0.0
aF0.000224462
asS'uvig_210757'
p345
(lp346
F0.0
aF0.009146478
aF0.000681973
aF0.035163623
aF0.0
aF0.0
aF0.000655332
aF0.0
aF0.000848428
aF0.0
aF0.001285725
aF0.06102028
aF0.002520366
aF0.001553582
aF0.0
aF0.000214258
aF0.0
aF0.0
aF0.0
aF0.000857667
aF0.000474194
aF0.000635764
aF0.000680425
aF0.000162645
aF0.0
aF0.000121859
aF0.000133595
aF0.0
asS'uvig_11105'
p347
(lp348
F0.000141294
aF0.000431874
aF0.021823127
aF0.000203552
aF5.16373e-05
aF0.0
aF0.001392581
aF0.0
aF0.000648798
aF0.000211598
aF0.000385718
aF0.001061735
aF0.0
aF0.00024934
aF0.000336519
aF0.000214258
aF0.000148674
aF0.0
aF0.000125059
aF0.000142945
aF0.03539208
aF0.000192656
aF0.000395086
aF0.000162645
aF0.0
aF0.0
aF0.0
aF0.0
asS'uvig_566801'
p349
(lp350
F0.000141294
aF0.000586115
aF0.000340986
aF0.000483436
aF5.16373e-05
aF0.0
aF0.00047102
aF0.000333834
aF0.000224584
aF0.0
aF0.002410735
aF0.001415647
aF0.000420061
aF0.00024934
aF0.0
aF0.0
aF0.0
aF0.0
aF0.000250118
aF0.000714723
aF0.0
aF0.00310176
aF0.001953479
aF0.000325291
aF0.0
aF0.000121859
aF0.0
aF0.0
asS'uvig_225910'
p351
(lp352
F0.003532346
aF0.026498565
aF0.034463979
aF0.031245245
aF0.000852016
aF0.000317641
aF0.006061822
aF0.0
aF0.011653406
aF0.000211598
aF0.03063241
aF0.044297951
aF0.018202643
aF0.005236146
aF0.000588908
aF0.0
aF0.000594697
aF0.0
aF0.002438652
aF0.010292007
aF0.003362463
aF0.022694863
aF0.021312676
aF0.017240398
aF0.0
aF0.001766952
aF0.0
aF0.002020157
asS'uvig_59859'
p353
(lp354
F0.00091841
aF0.009855985
aF0.012494715
aF0.031626905
aF0.00038728
aF0.00013235
aF0.000614374
aF0.0
aF0.002844729
aF0.0
aF0.008566146
aF0.035184724
aF0.006160895
aF0.002052262
aF8.41297e-05
aF0.0
aF0.000297349
aF0.000211495
aF0.001188061
aF0.007004283
aF0.002327859
aF0.015643658
aF0.012928081
aF0.007156392
aF0.000122343
aF0.00097487
aF0.0
aF0.0
asS'uvig_542539'
p355
(lp356
F0.0
aF0.000215937
aF9.74247e-05
aF5.0888e-05
aF0.0
aF0.007093986
aF4.09583e-05
aF0.000667668
aF4.99075e-05
aF0.0
aF0.000803578
aF0.000176956
aF0.0
aF0.067590402
aF0.0
aF0.0
aF0.000148674
aF0.0
aF0.000250118
aF0.0
aF0.0
aF0.000231187
aF0.000175594
aF0.000325291
aF0.0
aF0.0
aF0.0
aF0.0
asS'uvig_557689'
p357
(lp358
F0.0
aF0.001789193
aF0.003263727
aF0.007658647
aF0.000722922
aF0.000264701
aF0.000860123
aF0.0
aF0.005140475
aF0.0
aF0.005014329
aF0.007933521
aF0.005460793
aF0.001898822
aF0.000336519
aF0.0
aF0.00052036
aF0.000634484
aF0.000562766
aF0.010149063
aF0.000603519
aF0.005163178
aF0.017932499
aF0.013580879
aF0.0
aF0.000365576
aF0.00026719
aF0.002693542
asS'uvig_58357'
p359
(lp360
F0.000777116
aF0.001388167
aF0.017073674
aF0.014503086
aF0.000619648
aF0.000741163
aF0.011877895
aF0.002003005
aF0.002869682
aF0.000634794
aF0.004869685
aF0.007284683
aF0.004620671
aF0.005658107
aF0.000757167
aF0.00214258
aF0.000223012
aF0.000422989
aF0.001250591
aF0.002858891
aF0.039487388
aF0.012252914
aF0.021949203
aF0.004472745
aF0.0
aF0.000487435
aF0.000400784
aF0.000897847
asS'uvig_366661'
p361
(lp362
F0.001271644
aF0.009701745
aF0.040455597
aF0.005470462
aF0.000490555
aF0.000529402
aF0.000880603
aF0.000667668
aF0.001197781
aF0.0
aF0.004853614
aF0.006163963
aF0.002940427
aF0.001246702
aF0.000420648
aF0.000642774
aF0.000446023
aF0.000634484
aF0.001063002
aF0.00314478
aF0.001379472
aF0.004508148
aF0.004060603
aF0.003740841
aF0.0
aF0.0010358
aF0.001335948
aF0.000448924
asS'uvig_454815'
p363
(lp364
F0.008195042
aF0.038297984
aF0.089021798
aF0.041728178
aF0.003588793
aF0.004129335
aF0.00729057
aF0.005675179
aF0.015945453
aF0.00338557
aF0.035357451
aF0.068747353
aF0.019742867
aF0.009666732
aF0.003701706
aF0.005784966
aF0.002676138
aF0.002960926
aF0.012193261
aF0.014294454
aF0.011078885
aF0.031113925
aF0.036303982
aF0.027080436
aF0.003547939
aF0.005544575
aF0.004275034
aF0.002918004
asS'uvig_154730'
p365
(lp366
F0.000141294
aF0.000293057
aF0.002459973
aF0.000915984
aF5.16373e-05
aF0.0
aF0.000880603
aF0.0
aF0.002545284
aF0.0
aF0.000369646
aF0.000412897
aF0.000420061
aF0.0003836
aF8.41297e-05
aF0.0
aF0.000223012
aF0.0
aF0.0
aF0.000857667
aF0.02245953
aF0.0
aF0.00054873
aF0.000162645
aF0.0
aF0.000243718
aF0.000667974
aF0.0
asS'uvig_184496'
p367
(lp368
F0.010808978
aF0.024832764
aF0.03719187
aF0.019515556
aF0.009501266
aF0.010746859
aF0.008027819
aF0.003004507
aF0.004791122
aF0.00677114
aF0.004580397
aF0.003539117
aF0.013301931
aF0.003318144
aF0.006898635
aF0.009534482
aF0.004906253
aF0.013112674
aF0.010504964
aF0.006575449
aF8.6217e-05
aF0.002350402
aF0.02947778
aF0.005855229
aF0.006851192
aF0.011089149
aF0.010019612
aF0.004938161
asS'uvig_293756'
p369
(lp370
F0.000353235
aF0.014529481
aF0.008256741
aF0.017785363
aF0.000413099
aF0.000979394
aF0.001146831
aF0.002670673
aF0.006562839
aF0.002010182
aF0.007601852
aF0.019465145
aF0.005040732
aF0.003759285
aF0.001051621
aF0.000214258
aF0.00052036
aF0.0
aF0.002313593
aF0.010720841
aF0.000948387
aF0.008919967
aF0.029982612
aF0.007806973
aF0.000244685
aF0.000243718
aF0.001202353
aF0.002244619
asS'uvig_210196'
p371
(lp372
F0.000141294
aF0.000771204
aF0.000340986
aF0.000712432
aF0.0
aF0.0
aF0.000122875
aF0.0
aF0.000149723
aF0.0
aF0.000482147
aF0.000766809
aF0.0
aF0.003931905
aF0.000673038
aF0.000642774
aF0.000297349
aF0.000211495
aF0.001625768
aF0.000285889
aF0.0
aF0.022001302
aF0.000351187
aF0.000162645
aF0.0
aF0.000243718
aF0.0
aF0.0
asS'uvig_309662'
p373
(lp374
F0.0
aF0.000308482
aF0.000194849
aF0.000101776
aF0.0
aF0.0
aF0.000204791
aF0.255383075
aF0.002470422
aF0.0
aF0.001189296
aF0.000176956
aF0.0
aF0.0002877
aF0.0
aF0.0
aF0.0
aF0.0
aF0.0
aF0.000285889
aF0.0
aF0.000905483
aF0.000219492
aF0.0
aF0.0
aF0.0
aF0.0
aF0.0
asS'uvig_19655'
p375
(lp376
F0.000565175
aF0.005753181
aF0.004530247
aF0.001781081
aF0.000258187
aF0.0
aF0.001269706
aF0.0
aF0.001796671
aF0.0
aF0.005367904
aF0.011413653
aF0.006440935
aF0.001707022
aF0.000252389
aF0.000214258
aF0.000148674
aF0.0
aF0.000250118
aF0.006146615
aF0.002155425
aF0.006665893
aF0.008472393
aF0.004716713
aF0.0
aF0.000670223
aF0.0
aF0.0
asS'uvig_475341'
p377
(lp378
F0.006923398
aF0.022241519
aF0.018827319
aF0.021576521
aF0.003666249
aF0.003441113
aF0.004341576
aF0.000667668
aF0.004042509
aF0.002962374
aF0.022934128
aF0.022620858
aF0.008681261
aF0.006789728
aF0.002187372
aF0.004499418
aF0.002230115
aF0.002749432
aF0.004752245
aF0.00628956
aF0.003362463
aF0.015431736
aF0.021861407
aF0.010002684
aF0.003914967
aF0.003777622
aF0.001870328
aF0.001346771
asS'uvig_195887'
p379
(lp380
F0.000141294
aF0.01906416
aF0.000535836
aF0.001323089
aF0.0
aF0.000317641
aF0.000368624
aF0.0
aF0.000449168
aF0.0
aF0.002233948
aF0.003539117
aF0.000420061
aF0.000421961
aF0.0
aF0.0
aF0.0
aF0.000211495
aF0.000625295
aF0.001143556
aF8.6217e-05
aF0.00327515
aF0.001316952
aF0.000650581
aF0.0
aF0.0
aF0.000935164
aF0.000897847
asS'uvig_505624'
p381
(lp382
F0.001130351
aF0.000277633
aF4.87123e-05
aF0.000101776
aF0.001032746
aF0.000529402
aF0.001064915
aF0.000667668
aF0.00059889
aF0.000634794
aF0.009996516
aF0.000235941
aF0.0
aF0.000843921
aF0.000252389
aF0.001499806
aF0.000892046
aF0.001480463
aF0.000750355
aF0.001143556
aF0.0
aF0.000115594
aF0.000307289
aF0.000162645
aF0.000489371
aF0.000731153
aF0.000667974
aF0.001346771
asS'uvig_249390'
p383
(lp384
F0.000423881
aF0.566989081
aF0.00051148
aF0.000457992
aF0.000722922
aF0.001164684
aF0.000901082
aF0.018694709
aF0.010755071
aF0.000846392
aF0.005866123
aF0.095231747
aF0.037385428
aF0.006310228
aF0.002019113
aF0.000857032
aF0.000148674
aF0.000845979
aF0.002126005
aF0.001715335
aF0.002802053
aF0.000443109
aF0.000965765
aF0.000487936
aF0.000734056
aF0.001949741
aF0.000534379
aF0.000448924
asS'uvig_217100'
p385
(lp386
F0.000282588
aF0.009655472
aF0.011617893
aF0.005801234
aF0.000154912
aF5.29402e-05
aF0.000266229
aF0.0
aF0.001247688
aF0.0
aF0.003664318
aF0.003332669
aF0.00406059
aF0.001342602
aF0.001093686
aF0.000214258
aF0.0
aF0.0
aF0.000125059
aF0.004145392
aF0.00086217
aF0.004874194
aF0.015013255
aF0.002358356
aF0.000122343
aF0.000609294
aF0.0
aF0.000448924
asS'uvig_247884'
p387
(lp388
F0.001412938
aF0.003239056
aF0.005041727
aF0.004045598
aF0.00134257
aF0.002435249
aF0.00188408
aF0.004006009
aF0.002545284
aF0.001481187
aF0.00215359
aF0.009378661
aF0.014002033
aF0.002493403
aF0.004122355
aF0.002356838
aF0.001338069
aF0.002960926
aF0.002876359
aF0.000571778
aF0.012156598
aF0.004354023
aF0.000856019
aF0.000975872
aF0.000734056
aF0.003655764
aF0.004007845
aF0.001795695
asS'uvig_99078'
p389
(lp390
F0.004309462
aF0.003408721
aF0.023820333
aF0.002111853
aF0.003614612
aF0.003123471
aF0.003809118
aF0.000667668
aF0.002395561
aF0.00338557
aF0.012101891
aF0.007196205
aF0.002800407
aF0.013023236
aF0.001598464
aF0.00428516
aF0.001932766
aF0.004229895
aF0.001500709
aF0.003716558
aF0.000732845
aF0.036257837
aF0.001009663
aF0.000325291
aF0.003425596
aF0.00304647
aF0.002404707
aF0.001346771
asS'uvig_453807'
p391
(lp392
F0.002825877
aF0.00484316
aF0.003336795
aF0.002671621
aF0.002220405
aF0.002276428
aF0.002641808
aF0.000667668
aF0.001796671
aF0.002750776
aF0.011651887
aF0.008080984
aF0.001540224
aF0.001668662
aF0.001934983
aF0.001928322
aF0.001189395
aF0.002326442
aF0.002563711
aF0.002287113
aF0.000431085
aF0.002485261
aF0.007111542
aF0.001951743
aF0.002936225
aF0.00304647
aF0.002271112
aF0.001795695
asS'uvig_502448'
p393
(lp394
F0.003532346
aF0.024354618
aF0.027887814
aF0.015266406
aF0.002272042
aF0.003441113
aF0.00258037
aF0.001335336
aF0.001522179
aF0.001904383
aF0.005673264
aF0.005072735
aF0.011761708
aF0.002167343
aF0.002944539
aF0.00321387
aF0.001561081
aF0.002537937
aF0.003751773
aF0.003859503
aF0.000689736
aF0.004912725
aF0.028555914
aF0.005773907
aF0.001835141
aF0.003168328
aF0.003473465
aF0.012794326
asS'uvig_160196'
p395
(lp396
F0.003249758
aF0.017999898
aF0.002167699
aF0.00526691
aF0.002736778
aF0.003441113
aF0.002744203
aF0.000667668
aF0.001597041
aF0.001904383
aF0.057037997
aF0.031026261
aF0.009661403
aF0.011181954
aF0.00260802
aF0.004070902
aF0.001338069
aF0.003806905
aF0.004001891
aF0.002001224
aF0.000387977
aF0.059877448
aF0.001492546
aF0.000813226
aF0.003670281
aF0.004569704
aF0.002671896
aF0.001795695
asS'uvig_320251'
p397
(lp398
F0.0
aF0.004318742
aF0.003482932
aF0.003714826
aF0.0
aF0.0
aF0.000348145
aF0.000667668
aF0.000748613
aF0.0
aF0.003776819
aF0.004836794
aF0.000980142
aF0.001457682
aF8.41297e-05
aF0.0
aF0.0
aF0.0
aF0.001500709
aF0.000714723
aF8.6217e-05
aF0.003467806
aF0.007023745
aF0.002358356
aF0.0
aF0.000365576
aF0.0
aF0.0
asS'uvig_539326'
p399
(lp400
F0.000141294
aF0.001326471
aF0.002654822
aF0.049641265
aF5.16373e-05
aF0.000211761
aF0.000450541
aF0.320814555
aF0.001946393
aF0.0
aF0.004516111
aF0.002182456
aF0.001400203
aF0.001016541
aF8.41297e-05
aF0.0
aF0.000148674
aF0.000422989
aF0.000375177
aF0.000571778
aF0.000819062
aF0.000462374
aF0.001163308
aF0.001789098
aF0.000244685
aF0.000853011
aF0.000400784
aF0.000448924
asS'uvig_202392'
p401
(lp402
F0.000141294
aF0.000694083
aF0.001217808
aF0.000483436
aF5.16373e-05
aF0.0
aF0.000143354
aF0.0
aF0.000499075
aF0.000634794
aF0.003021455
aF0.001887529
aF0.0
aF0.001380962
aF0.000588908
aF0.0
aF0.0
aF0.0
aF0.000875414
aF0.0
aF0.000215543
aF0.000693561
aF0.00026339
aF0.000325291
aF0.000244685
aF0.0
aF0.000667974
aF0.0
asS'uvig_321869'
p403
(lp404
F0.000141294
aF0.000370178
aF0.019850278
aF0.0
aF0.0
aF5.29402e-05
aF0.000286708
aF0.0
aF0.000149723
aF0.0
aF0.000160716
aF0.000383404
aF0.00014002
aF5.75401e-05
aF0.000504778
aF0.0
aF0.0
aF0.0
aF0.000250118
aF0.0
aF0.053023458
aF0.0
aF4.38984e-05
aF0.0
aF0.0
aF0.0
aF0.0
aF0.0
asS'uvig_562629'
p405
(lp406
F0.000211941
aF0.000524419
aF0.014662414
aF0.002213629
aF0.000206549
aF0.00010588
aF0.002191267
aF0.0
aF0.002395561
aF0.000423196
aF0.00081965
aF0.003775058
aF0.001820264
aF0.001380962
aF0.000420648
aF0.000321387
aF0.0
aF0.0
aF0.000125059
aF0.002001224
aF0.053842519
aF0.00606866
aF0.005399504
aF0.002195711
aF0.000244685
aF0.000121859
aF0.000133595
aF0.0
asS'uvig_157795'
p407
(lp408
F0.0
aF0.000123393
aF0.004237973
aF5.0888e-05
aF0.0
aF0.00010588
aF8.19165e-05
aF0.0
aF4.99075e-05
aF0.0
aF0.000128573
aF0.005721573
aF0.0
aF0.00011508
aF0.0
aF0.0
aF0.0
aF0.0
aF0.0
aF0.0
aF8.6217e-05
aF0.000115594
aF0.000790171
aF0.0
aF0.0
aF0.0
aF0.0
aF0.0
asS'uvig_66907'
p409
(lp410
F0.0
aF0.000940869
aF0.004822521
aF0.002315405
aF5.16373e-05
aF0.0
aF0.00329714
aF0.000667668
aF0.00331885
aF0.0
aF0.003808962
aF0.002388904
aF0.002800407
aF0.001553582
aF0.000252389
aF0.0
aF0.000223012
aF0.0
aF0.000312648
aF0.001286501
aF0.006595601
aF0.002215543
aF0.003050939
aF0.002602324
aF0.0
aF0.0
aF0.000534379
aF0.001346771
asS'uvig_113131'
p411
(lp412
F0.00091841
aF0.003732627
aF0.044937132
aF0.014833858
aF0.000154912
aF5.29402e-05
aF0.005672719
aF0.002670673
aF0.003817925
aF0.0
aF0.005544691
aF0.044120995
aF0.009521383
aF0.006885628
aF0.000462713
aF0.002249709
aF0.000743372
aF0.0
aF0.000125059
aF0.005146004
aF0.051342226
aF0.018263777
aF0.00248026
aF0.002114388
aF0.0
aF0.0
aF0.0
aF0.0
asS'uvig_413650'
p413
(lp414
F0.000706469
aF0.003485841
aF0.005601919
aF0.001119536
aF0.000619648
aF0.000847043
aF0.00094204
aF0.000667668
aF0.000623844
aF0.000211598
aF0.001767873
aF0.002506875
aF0.003080447
aF0.000632941
aF0.001009556
aF0.001714064
aF0.000297349
aF0.000634484
aF0.001250591
aF0.000285889
aF0.011423753
aF0.003236619
aF0.001712038
aF0.000325291
aF0.000734056
aF0.000365576
aF0.000935164
aF0.000448924
asS'uvig_458475'
p415
(lp416
F0.00183682
aF0.01237011
aF0.015490524
aF0.005801234
aF0.001290933
aF0.001852907
aF0.001003477
aF0.000667668
aF0.001172827
aF0.002962374
aF0.005705407
aF0.00412897
aF0.002240325
aF0.002857823
aF0.002271502
aF0.001928322
aF0.001338069
aF0.001057474
aF0.00281383
aF0.004002447
aF0.0
aF0.001579778
aF0.017142328
aF0.002927615
aF0.000978742
aF0.002680893
aF0.001870328
aF0.000448924
asS'uvig_372253'
p417
(lp418
F0.000282588
aF0.000215937
aF0.00686844
aF0.001450309
aF0.0
aF5.29402e-05
aF0.000860123
aF0.000667668
aF0.001372457
aF0.0
aF0.001092867
aF0.00100275
aF0.0
aF0.002224883
aF0.000168259
aF0.0
aF0.0
aF0.0
aF0.000250118
aF0.001429445
aF0.018234897
aF0.001348591
aF0.000746273
aF0.000487936
aF0.0
aF0.000243718
aF0.000133595
aF0.000897847
asS'uvig_8544'
p419
(lp420
F0.000141294
aF0.016442066
aF0.00114474
aF0.000407104
aF5.16373e-05
aF0.000317641
aF0.006921946
aF0.041395426
aF0.000923289
aF0.003491369
aF0.001623228
aF0.001533617
aF0.000420061
aF0.044804534
aF0.000673038
aF0.0
aF0.00683902
aF0.000211495
aF0.00143818
aF0.0
aF0.000431085
aF0.000789889
aF0.000307289
aF0.000325291
aF0.0
aF0.001949741
aF0.000133595
aF0.0
asS'uvig_430938'
p421
(lp422
F0.0
aF0.001727497
aF0.001583151
aF0.000686988
aF0.0
aF5.29402e-05
aF0.001494976
aF0.008679686
aF0.00079852
aF0.0
aF0.00051429
aF0.00368658
aF0.01680244
aF0.030419517
aF0.000420648
aF0.0
aF0.008102752
aF0.0
aF0.000437707
aF0.011864397
aF0.01150997
aF5.77968e-05
aF0.000680425
aF0.002033066
aF0.0
aF0.000487435
aF0.0
aF0.0
asS'uvig_9719'
p423
(lp424
F0.0
aF0.000215937
aF0.002411261
aF0.000941428
aF0.0
aF0.0
aF0.000143354
aF0.0
aF0.00019963
aF0.0
aF0.000321431
aF0.000176956
aF0.000280041
aF3.836e-05
aF0.0
aF0.0
aF0.0
aF0.0
aF0.0
aF0.0
aF0.009311437
aF0.000154125
aF0.000219492
aF0.0
aF0.0
aF0.0
aF0.000133595
aF0.0
asS'uvig_336069'
p425
(lp426
F0.000423881
aF0.00367093
aF0.05938034
aF0.015266406
aF5.16373e-05
aF0.00010588
aF0.009338483
aF0.012018027
aF0.006188533
aF0.0
aF0.01414298
aF0.025363674
aF0.017222501
aF0.045840256
aF0.003575512
aF0.00107129
aF0.010109855
aF0.0
aF0.001063002
aF0.002144168
aF0.071042812
aF0.013331787
aF0.022936918
aF0.001626453
aF0.000122343
aF0.000365576
aF0.00026719
aF0.0
asS'uvig_31763'
p427
(lp428
F0.000141294
aF0.00049357
aF0.005309645
aF0.001831969
aF0.0
aF5.29402e-05
aF0.00022527
aF0.000667668
aF0.002794821
aF0.0
aF0.001494656
aF0.002329919
aF0.000700102
aF0.000517861
aF0.000168259
aF0.000214258
aF0.000148674
aF0.000422989
aF0.000125059
aF0.001429445
aF0.037504397
aF0.001521981
aF0.001338901
aF0.0
aF0.0
aF0.0
aF0.0
aF0.000448924
asS'uvig_418838'
p429
(lp430
F0.000706469
aF0.001388167
aF0.017512086
aF0.010610152
aF0.000258187
aF0.000158821
aF0.000675811
aF0.002003005
aF0.006288348
aF0.0
aF0.002700024
aF0.013242197
aF0.004620671
aF0.002742743
aF0.000841297
aF0.000428516
aF0.000966383
aF0.000211495
aF0.000125059
aF0.004574225
aF0.003491789
aF0.002832041
aF0.005333656
aF0.006912424
aF0.000122343
aF0.000792082
aF0.000400784
aF0.000224462
asS'uvig_194720'
p431
(lp432
F0.000141294
aF0.001156806
aF0.002045918
aF0.000941428
aF0.000103275
aF0.000423522
aF0.000839644
aF0.0
aF0.000698705
aF0.0
aF0.043023589
aF0.001474632
aF0.001400203
aF0.001687842
aF0.000504778
aF0.000214258
aF0.0
aF0.000211495
aF0.000875414
aF0.000428834
aF0.001336364
aF0.000944014
aF0.002721701
aF0.000894549
aF0.000244685
aF0.000121859
aF0.000935164
aF0.0
asS'uvig_505862'
p433
(lp434
F0.0
aF0.002976847
aF0.022212826
aF0.004274594
aF0.000129093
aF2.64701e-05
aF0.000511978
aF0.001335336
aF7.48613e-05
aF0.0
aF0.001880374
aF0.035184724
aF0.010641545
aF0.001074081
aF0.000504778
aF0.0
aF0.000669035
aF0.0
aF0.0
aF0.001429445
aF0.007802639
aF0.006453972
aF0.002063225
aF0.000650581
aF0.0
aF0.000365576
aF0.0
aF0.0
asS'uvig_99689'
p435
(lp436
F0.000282588
aF0.001403591
aF0.05334001
aF0.002697065
aF0.000464736
aF0.000211761
aF0.001925038
aF0.0
aF0.009432522
aF0.000211598
aF0.004451825
aF0.009113227
aF0.002800407
aF0.001879642
aF0.00147227
aF0.000214258
aF0.000594697
aF0.000422989
aF0.000875414
aF0.00471717
aF0.045048385
aF0.00899703
aF0.038433055
aF0.000731904
aF0.000489371
aF0.000853011
aF0.000400784
aF0.000448924
asS'uvig_513534'
p437
(lp438
F0.000211941
aF0.000246785
aF0.018169702
aF0.001857413
aF0.0
aF0.0
aF0.000614374
aF0.0
aF0.005065613
aF0.0
aF0.000803578
aF0.000825794
aF0.000980142
aF0.000441141
aF0.0
aF0.000214258
aF0.0
aF0.0
aF0.000125059
aF0.000857667
aF0.016941641
aF0.003621931
aF0.001975428
aF0.000894549
aF0.0
aF0.000121859
aF0.0
aF0.0
asS'uvig_25351'
p439
(lp440
F0.0
aF0.000586115
aF0.000340986
aF0.002951505
aF0.0
aF0.0
aF0.000286708
aF0.0
aF0.000573936
aF0.0
aF0.002635737
aF0.000648838
aF0.000980142
aF0.000632941
aF0.0
aF0.0
aF0.0
aF0.0
aF0.000250118
aF0.005146004
aF0.001465689
aF0.000269718
aF0.000921867
aF0.000975872
aF0.0
aF0.0
aF0.0
aF0.0
asS'uvig_161124'
p441
(lp442
F0.000141294
aF0.001156806
aF0.00343422
aF0.001577529
aF5.16373e-05
aF0.0
aF0.00069629
aF0.0
aF0.0023207
aF0.0
aF0.001157153
aF0.002211948
aF0.000420061
aF0.001726202
aF0.000252389
aF0.000214258
aF0.000148674
aF0.000211495
aF0.000125059
aF0.000571778
aF0.006207624
aF0.000905483
aF0.003643568
aF0.002195711
aF0.0
aF0.0
aF0.000133595
aF0.0
asS'uvig_16314'
p443
(lp444
F0.000282588
aF0.000385602
aF0.007745262
aF0.001323089
aF0.0
aF5.29402e-05
aF0.001781684
aF0.0
aF0.001372457
aF0.0
aF0.000867865
aF0.009732573
aF0.000840122
aF0.001956362
aF0.001934983
aF0.0
aF0.000446023
aF0.0
aF0.000625295
aF0.001143556
aF0.009095894
aF0.001888028
aF0.002963142
aF0.000487936
aF0.0
aF0.001340447
aF0.00026719
aF0.000448924
asS'uvig_11819'
p445
(lp446
F0.001412938
aF0.00117223
aF0.062595354
aF0.000559768
aF0.001290933
aF0.001270565
aF0.002846599
aF0.000667668
aF0.001147873
aF0.002539177
aF0.001141081
aF0.002093978
aF0.0
aF0.000632941
aF0.001177816
aF0.002356838
aF0.000446023
aF0.000634484
aF0.00137565
aF0.000428834
aF0.123505859
aF0.000770624
aF0.000241441
aF0.000162645
aF0.002446854
aF0.001706023
aF0.001068759
aF0.000897847
asS'uvig_378623'
p447
(lp448
F0.000141294
aF0.001141382
aF0.01093592
aF0.004427258
aF0.000154912
aF0.000158821
aF0.001003477
aF0.009347354
aF0.00351848
aF0.000634794
aF0.003841105
aF0.011325175
aF0.007141037
aF0.011009333
aF0.001051621
aF0.001499806
aF0.002230115
aF0.000422989
aF0.000750355
aF0.022871127
aF0.009570088
aF0.002465995
aF0.002458311
aF0.000975872
aF0.000244685
aF0.000243718
aF0.00026719
aF0.000448924
asS'uvig_229270'
p449
(lp450
F0.012221916
aF0.036416246
aF9.74247e-05
aF0.031143469
aF0.000981109
aF0.0
aF0.000860123
aF0.0
aF0.000124769
aF0.000423196
aF0.000835722
aF0.000117971
aF0.000420061
aF0.000575401
aF0.0
aF0.0
aF0.0
aF0.000317242
aF0.0
aF0.000285889
aF0.0
aF0.0
aF8.77968e-05
aF0.092626477
aF0.0
aF0.000182788
aF0.000133595
aF0.000448924
asS'uvig_400047'
p451
(lp452
F0.0
aF0.000154241
aF0.004822521
aF0.000407104
aF0.0
aF0.00010588
aF0.000163833
aF0.0
aF0.0
aF0.017245246
aF0.000482147
aF0.007727073
aF0.0
aF0.0001918
aF0.000336519
aF0.0
aF0.0
aF0.000211495
aF0.000250118
aF0.000285889
aF0.0
aF0.000192656
aF0.000131695
aF0.0
aF0.0
aF0.000243718
aF0.0
aF0.0
asS'uvig_235700'
p453
(lp454
F0.0
aF0.004889433
aF0.004457179
aF0.003307721
aF0.000180731
aF0.000264701
aF6.14374e-05
aF0.0
aF0.000923289
aF0.0
aF0.005625049
aF0.002919772
aF0.014142053
aF0.009628372
aF0.000252389
aF0.000857032
aF0.0
aF0.0
aF0.000375177
aF0.001143556
aF0.000129326
aF0.006665893
aF0.003709415
aF0.002195711
aF0.000244685
aF0.000731153
aF0.000133595
aF0.000448924
asS'uvig_514433'
p455
(lp456
F0.003320405
aF0.020945897
aF0.021920552
aF0.018116136
aF0.001058565
aF0.000741163
aF0.003379056
aF0.003338341
aF0.006213486
aF0.000634794
aF0.014930487
aF0.019701086
aF0.014422094
aF0.008880351
aF0.001051621
aF0.000642774
aF0.000669035
aF0.002114947
aF0.002313593
aF0.00471717
aF0.003578006
aF0.013986817
aF0.015342493
aF0.008701522
aF0.000978742
aF0.002132529
aF0.001469543
aF0.002244619
asS'uvig_40752'
p457
(lp458
F0.0
aF0.000154241
aF0.003653425
aF0.001068648
aF5.16373e-05
aF0.0
aF0.002375579
aF0.000667668
aF0.00192144
aF0.0
aF0.00081965
aF0.002034992
aF0.000420061
aF0.002167343
aF0.000168259
aF0.0
aF0.000223012
aF0.0
aF0.000125059
aF0.002858891
aF0.010130498
aF0.000597233
aF0.001909581
aF0.000569258
aF0.0
aF0.000121859
aF0.0
aF0.000224462
asS'uvig_124379'
p459
(lp460
F0.000777116
aF0.022796786
aF0.005577563
aF0.004045598
aF0.000206549
aF0.0
aF0.001064915
aF0.000333834
aF0.006113671
aF0.0
aF0.001880374
aF0.002949264
aF0.002520366
aF0.001016541
aF0.000336519
aF0.002892483
aF0.000297349
aF0.000634484
aF0.000125059
aF0.002573002
aF0.034271259
aF0.003217353
aF0.003094838
aF0.003252905
aF0.0
aF0.000182788
aF0.0
aF0.0
asS'uvig_533592'
p461
(lp462
F0.000141294
aF0.001419015
aF0.027863457
aF0.001119536
aF0.000103275
aF0.00010588
aF0.000266229
aF0.0
aF0.000299445
aF0.0
aF0.003262528
aF0.001091228
aF0.001540224
aF0.005005986
aF0.0
aF0.0
aF7.43372e-05
aF0.0
aF0.000562766
aF0.003287724
aF0.001982991
aF0.000558702
aF0.017471566
aF0.000975872
aF0.0
aF6.09294e-05
aF0.000333987
aF0.0
asS'uvig_361314'
p463
(lp464
F0.0
aF0.000215937
aF0.003166302
aF0.000305328
aF0.0
aF0.0
aF0.000204791
aF0.000667668
aF0.000249538
aF0.0
aF0.000530362
aF0.004895779
aF0.000280041
aF0.000652121
aF8.41297e-05
aF0.0
aF0.000297349
aF0.0
aF0.0
aF0.000571778
aF0.000215543
aF0.000211921
aF0.000877968
aF0.000162645
aF0.0
aF0.000121859
aF0.0
aF0.0
asS'uvig_414386'
p465
(lp466
F0.006075635
aF0.004796888
aF0.000438411
aF0.103226351
aF0.000619648
aF0.0
aF0.002764683
aF0.0
aF0.000424214
aF0.0
aF0.001205368
aF0.000530868
aF0.000700102
aF0.000767201
aF0.000168259
aF0.0
aF0.0
aF0.000317242
aF0.0
aF0.000285889
aF0.000172434
aF0.000308249
aF0.000395086
aF0.064651492
aF0.0
aF0.000304647
aF0.0
aF0.000448924
asS'uvig_271698'
p467
(lp468
F0.000847763
aF0.000539843
aF0.016878825
aF0.002137297
aF0.0
aF0.000370581
aF0.001249227
aF0.0
aF0.007036961
aF0.0
aF0.001108938
aF0.001268184
aF0.000980142
aF0.002493403
aF0.000504778
aF0.0
aF0.0
aF0.0
aF0.000250118
aF0.00157239
aF0.016769207
aF0.007417251
aF0.001755936
aF0.000325291
aF0.0
aF0.000121859
aF0.0
aF0.0
asS'uvig_219547'
p469
(lp470
F0.0
aF0.000185089
aF0.000146137
aF0.000203552
aF5.16373e-05
aF0.0
aF4.09583e-05
aF0.000667668
aF0.00019963
aF0.0
aF0.000321431
aF0.000117971
aF0.0
aF0.00015344
aF0.0
aF0.0
aF0.0
aF0.0
aF0.0
aF0.000571778
aF0.046988268
aF0.000154125
aF0.000131695
aF0.0
aF0.0
aF0.000243718
aF0.0
aF0.0
asS'uvig_196581'
p471
(lp472
F0.001554232
aF0.00049357
aF0.001656219
aF0.00089054
aF0.000981109
aF0.001376445
aF0.001023956
aF0.0
aF0.000923289
aF0.000846392
aF0.001864302
aF0.001061735
aF0.000840122
aF0.001975542
aF0.001346075
aF0.001714064
aF0.000148674
aF0.002114947
aF0.000875414
aF0.00157239
aF0.000517302
aF0.000192656
aF0.008428494
aF0.000406613
aF0.001223427
aF0.000731153
aF0.000801569
aF0.000897847
asS'uvig_100318'
p473
(lp474
F0.0
aF0.000401026
aF0.000219206
aF0.000559768
aF5.16373e-05
aF0.0
aF0.000163833
aF0.0
aF0.00019963
aF0.0
aF0.016521573
aF0.000796301
aF0.0
aF0.00023016
aF0.0
aF0.0
aF0.0
aF0.0
aF0.0
aF0.0
aF0.000129326
aF0.000423843
aF0.000175594
aF0.0
aF0.0
aF0.0
aF0.0
aF0.0
asS'uvig_561683'
p475
(lp476
F0.000141294
aF0.00559894
aF0.006283892
aF0.007404207
aF0.000361461
aF0.000344111
aF0.001433539
aF0.000667668
aF0.002869682
aF0.000423196
aF0.004837542
aF0.006547367
aF0.005040732
aF0.002838643
aF0.000168259
aF0.000214258
aF0.0
aF0.000422989
aF0.000687825
aF0.002144168
aF0.000732845
aF0.006531034
aF0.004499587
aF0.001870421
aF0.000489371
aF0.0010358
aF0.000133595
aF0.000897847
asS'uvig_517098'
p477
(lp478
F0.0
aF1.54241e-05
aF0.000121781
aF0.000152664
aF2.58187e-05
aF0.0
aF0.000143354
aF0.0
aF0.018690367
aF0.000211598
aF0.000273217
aF0.001238691
aF0.000280041
aF0.00015344
aF8.41297e-05
aF0.000428516
aF0.004906253
aF0.0
aF0.0
aF0.0
aF0.0
aF7.70624e-05
aF0.000131695
aF0.001870421
aF0.0
aF0.0
aF0.000133595
aF0.000673386
asS'uvig_108334'
p479
(lp480
F0.001695526
aF0.002467852
aF0.036217623
aF0.002824285
aF0.00077456
aF0.001217624
aF0.00116731
aF0.000667668
aF0.001023104
aF0.000846392
aF0.003133956
aF0.050815826
aF0.000700102
aF0.001112441
aF0.001682594
aF0.001392677
aF0.000743372
aF0.000845979
aF0.001500709
aF0.001715335
aF0.011725513
aF0.001252263
aF0.005728742
aF0.000325291
aF0.001468113
aF0.002071599
aF0.000400784
aF0.001346771
asS'uvig_391953'
p481
(lp482
F0.000141294
aF9.25445e-05
aF4.87123e-05
aF5.0888e-05
aF0.0
aF0.0
aF0.0
aF0.0
aF0.0
aF0.0
aF0.000546433
aF0.000117971
aF0.0
aF0.634724512
aF0.000336519
aF0.0
aF0.0
aF0.0
aF0.0
aF0.0
aF8.6217e-05
aF7.70624e-05
aF0.0
aF0.0
aF0.0
aF0.000121859
aF0.0
aF0.0
asS'uvig_510223'
p483
(lp484
F0.0
aF0.000246785
aF0.000194849
aF0.000356216
aF0.0
aF0.0
aF4.09583e-05
aF0.0
aF0.000249538
aF0.0
aF0.00081965
aF0.000530868
aF0.0
aF1.457374892
aF0.0
aF0.0
aF0.000297349
aF0.0
aF0.000125059
aF0.000285889
aF0.0020261
aF0.000154125
aF0.000175594
aF0.000406613
aF0.0
aF0.000304647
aF0.0
aF0.0
asS'uvig_355065'
p485
(lp486
F0.000141294
aF0.000724932
aF0.014638058
aF0.003231389
aF0.000103275
aF0.000158821
aF0.001904559
aF0.0
aF0.004441769
aF0.000211598
aF0.002137519
aF0.009644095
aF0.004620671
aF0.000939821
aF0.000546843
aF0.000642774
aF0.000817709
aF0.0
aF0.0
aF0.001286501
aF0.046212315
aF0.005028318
aF0.004236196
aF0.000487936
aF0.0
aF0.000243718
aF0.00026719
aF0.0
asS'uvig_504185'
p487
(lp488
F0.000847763
aF0.005768605
aF0.002679179
aF0.017174707
aF0.000154912
aF5.29402e-05
aF0.000860123
aF0.001335336
aF0.002944544
aF0.0
aF0.004644683
aF0.004335419
aF0.001960285
aF0.002646843
aF0.000378584
aF0.000214258
aF0.000148674
aF0.0
aF6.25295e-05
aF0.003859503
aF0.000689736
aF0.004238429
aF0.005180012
aF0.006017875
aF0.0
aF0.0
aF0.0
aF0.000897847
asS'uvig_529021'
p489
(lp490
F0.123632099
aF0.042076883
aF0.026743074
aF0.024629802
aF0.080838218
aF0.111280284
aF0.11953668
aF0.589550993
aF0.064979593
aF0.097652531
aF0.007232206
aF0.020379417
aF0.009101322
aF0.00040278
aF0.000252389
aF0.0
aF0.0
aF0.000105747
aF0.000187589
aF0.000142945
aF0.0
aF0.000866951
aF0.000395086
aF0.000813226
aF0.000122343
aF0.001279517
aF0.000133595
aF0.001346771
asS'uvig_177481'
p491
(lp492
F0.000847763
aF0.009748017
aF0.000243562
aF0.002468069
aF0.000284005
aF0.000529402
aF0.000491499
aF0.000667668
aF0.000374306
aF0.000211598
aF0.044855748
aF0.027310188
aF0.003920569
aF0.009743452
aF0.000757167
aF0.000857032
aF0.000297349
aF0.001268968
aF0.00143818
aF0.000285889
aF8.6217e-05
aF0.044734696
aF0.00026339
aF0.000487936
aF0.000489371
aF0.001401376
aF0.000133595
aF0.001346771
asS'uvig_528435'
p493
(lp494
F0.000423881
aF0.000215937
aF0.005041727
aF0.000356216
aF2.58187e-05
aF0.0
aF0.020274338
aF0.0
aF4.99075e-05
aF0.0
aF0.000771435
aF0.000383404
aF0.0
aF0.726174863
aF4.20648e-05
aF0.0
aF0.0
aF0.000211495
aF0.032077657
aF0.0
aF0.003060704
aF7.70624e-05
aF8.77968e-05
aF0.0
aF0.0
aF0.000243718
aF0.0
aF0.0
asS'uvig_309747'
p495
(lp496
F0.002684583
aF0.001388167
aF0.00063326
aF0.000407104
aF0.003046602
aF0.003123471
aF0.002252704
aF0.002670673
aF0.001347503
aF0.003173972
aF0.013484046
aF0.001946515
aF0.0
aF0.001189161
aF0.001430205
aF0.002356838
aF0.001486743
aF0.003595411
aF0.003126477
aF0.001715335
aF0.000172434
aF0.054772067
aF0.000658476
aF0.0
aF0.002202169
aF0.001827882
aF0.002404707
aF0.000897847
asS'uvig_121436'
p497
(lp498
F0.001412938
aF0.001542408
aF0.001899781
aF0.003104169
aF0.001058565
aF0.001058804
aF0.002744203
aF0.000667668
aF0.009632152
aF0.000423196
aF0.013869764
aF0.005161213
aF0.023943477
aF0.005101886
aF0.001598464
aF0.000321387
aF0.001635418
aF0.001374716
aF0.00131312
aF0.041739807
aF0.000129326
aF0.003968711
aF0.032550669
aF0.009758716
aF0.000611714
aF0.000670223
aF0.00026719
aF0.002693542
asS'uvig_453172'
p499
(lp500
F0.000141294
aF0.00208225
aF0.014759838
aF0.000457992
aF0.000232368
aF0.000158821
aF0.000634853
aF0.0
aF0.000174676
aF0.0
aF0.000482147
aF0.000678331
aF0.0
aF0.002972904
aF0.000168259
aF0.0
aF0.000148674
aF0.0
aF0.000375177
aF0.0
aF0.031641641
aF0.000770624
aF0.001426698
aF0.000162645
aF0.0
aF0.0
aF0.0
aF0.0
asS'uvig_75870'
p501
(lp502
F0.0
aF3.08482e-05
aF0.000146137
aF0.000101776
aF0.0
aF0.0
aF0.0
aF0.0
aF0.0
aF0.0
aF0.008823291
aF0.0
aF0.0
aF0.00015344
aF0.0
aF0.0
aF0.0
aF0.0
aF0.0
aF0.0
aF0.0
aF0.000115594
aF8.77968e-05
aF0.0
aF0.0
aF0.0
aF0.0
aF0.0
asS'uvig_182446'
p503
(lp504
F0.000141294
aF0.006755746
aF4.87123e-05
aF0.001882857
aF0.000103275
aF0.000211761
aF0.00024575
aF0.001001502
aF0.00019963
aF0.0
aF0.023384132
aF0.013950021
aF0.003500508
aF0.005849907
aF0.000336519
aF0.0
aF0.0
aF0.000211495
aF0.000312648
aF0.0
aF0.0
aF0.027877306
aF0.000395086
aF0.000162645
aF0.0
aF0.000426506
aF0.000935164
aF0.0
asS'uvig_525660'
p505
(lp506
F0.002190054
aF0.002097675
aF0.001193452
aF0.000992316
aF0.001110202
aF0.003149941
aF0.002764683
aF0.002003005
aF0.002570237
aF0.000846392
aF0.016296571
aF0.00657686
aF0.000280041
aF0.061145914
aF0.093131568
aF0.142910095
aF0.033749076
aF0.099719769
aF0.128123038
aF0.102491237
aF0.000732845
aF0.001290794
aF0.001536444
aF0.003984809
aF0.0
aF0.001706023
aF0.001469543
aF0.001795695
asS'uvig_98139'
p507
(lp508
F7.06469e-05
aF0.000185089
aF0.002971453
aF0.000788764
aF5.16373e-05
aF0.0
aF0.0
aF0.0
aF0.003643249
aF0.0
aF0.001092867
aF0.000707823
aF0.000280041
aF0.001783742
aF4.20648e-05
aF0.0
aF0.000594697
aF0.0
aF0.000375177
aF0.000285889
aF0.000474194
aF0.00310176
aF0.000636527
aF0.000162645
aF0.0
aF0.0
aF0.0
aF0.0
asS'uvig_287346'
p509
(lp510
F0.003108464
aF0.01085855
aF0.006308248
aF0.00862552
aF0.001936399
aF0.00267348
aF0.002273183
aF0.002003005
aF0.00371811
aF0.003808766
aF0.01557335
aF0.009909528
aF0.023663436
aF0.015996139
aF0.001934983
aF0.002999612
aF0.00052036
aF0.003806905
aF0.002501182
aF0.003001835
aF0.000517302
aF0.013794161
aF0.007221288
aF0.004066132
aF0.003180911
aF0.002437176
aF0.002671896
aF0.001571233
asS'uvig_112568'
p511
(lp512
F0.0
aF0.000616963
aF0.000146137
aF0.00076332
aF0.0
aF0.000211761
aF4.09583e-05
aF0.0
aF4.99075e-05
aF0.0
aF0.035903884
aF0.000412897
aF0.00014002
aF0.000460321
aF0.0
aF0.000214258
aF0.0
aF0.000211495
aF0.000125059
aF0.0
aF0.0
aF0.000231187
aF0.000131695
aF0.000162645
aF0.0
aF0.0
aF0.0
aF0.000897847
asS'uvig_160907'
p513
(lp514
F0.0
aF0.000370178
aF0.000487123
aF0.000457992
aF0.0
aF0.0
aF8.19165e-05
aF0.0
aF0.001946393
aF0.0
aF0.000835722
aF0.000884779
aF0.0
aF0.000613761
aF0.006099403
aF0.0
aF0.0
aF0.0
aF0.0
aF0.002287113
aF0.0
aF0.000616499
aF0.000877968
aF0.009433425
aF0.0
aF0.000121859
aF0.0
aF0.0
asS'uvig_503398'
p515
(lp516
F0.012575151
aF0.016704276
aF0.016075072
aF0.009541504
aF0.011411847
aF0.012917407
aF0.010894897
aF0.021031547
aF0.013749522
aF0.011426298
aF0.139629788
aF0.028519387
aF0.16088336
aF0.036058444
aF0.007529607
aF0.016712125
aF0.006244322
aF0.015016126
aF0.01506962
aF0.010434952
aF0.001077713
aF0.021461865
aF0.010008837
aF0.012848976
aF0.015170497
aF0.01504956
aF0.012290724
aF0.008305089
asS'uvig_386381'
p517
(lp518
F0.003461699
aF0.019048735
aF0.020093839
aF0.014070538
aF0.003098239
aF0.003123471
aF0.004136784
aF0.001335336
aF0.003792972
aF0.00338557
aF0.06803095
aF0.10909329
aF0.023523416
aF0.012371115
aF0.001177816
aF0.002785354
aF0.001412406
aF0.001903453
aF0.005940307
aF0.012007342
aF0.000344868
aF0.014468457
aF0.079039081
aF0.0111412
aF0.004893709
aF0.003229258
aF0.002137517
aF0.003142466
asS'uvig_170240'
p519
(lp520
F0.000706469
aF0.004257045
aF0.005163508
aF0.002773397
aF0.000129093
aF5.29402e-05
aF0.00069629
aF0.0
aF0.00212107
aF0.0
aF0.006541128
aF0.010941771
aF0.009661403
aF0.002589303
aF0.000168259
aF0.0
aF0.0
aF0.0
aF0.000437707
aF0.003859503
aF0.002457185
aF0.007282392
aF0.00744078
aF0.00463539
aF0.0
aF0.000548365
aF0.0
aF0.0
asS'uvig_239813'
p521
(lp522
F0.006146281
aF0.022334064
aF0.017828716
aF0.019312004
aF0.001807306
aF0.002276428
aF0.00352241
aF0.001335336
aF0.005814226
aF0.001269589
aF0.028559177
aF0.020231954
aF0.013441952
aF0.004622386
aF0.000757167
aF0.00214258
aF0.001115058
aF0.002537937
aF0.003376595
aF0.004574225
aF0.003103812
aF0.023041643
aF0.015583934
aF0.010897233
aF0.001712798
aF0.001462305
aF0.002137517
aF0.002020157
asS'uvig_542575'
p523
(lp524
F0.000423881
aF9.25445e-05
aF0.033002609
aF0.000152664
aF0.0
aF0.0
aF8.19165e-05
aF0.0
aF0.00019963
aF0.0
aF0.00051429
aF0.000766809
aF0.07197045
aF0.0003836
aF0.0
aF0.0
aF0.0
aF0.0
aF0.000125059
aF0.000285889
aF0.000172434
aF0.000154125
aF4.38984e-05
aF0.000487936
aF0.0
aF0.0
aF0.0
aF0.0
asS'uvig_534940'
p525
(lp526
F0.002331348
aF0.001002565
aF0.025038142
aF0.001806525
aF0.000284005
aF0.024114258
aF0.00047102
aF0.000667668
aF0.01107947
aF0.000528995
aF0.000980366
aF0.00312622
aF0.003920569
aF0.014787798
aF0.000252389
aF0.000535645
aF0.000223012
aF0.001057474
aF0.000625295
aF0.00628956
aF0.006121407
aF0.000712827
aF0.007352983
aF0.001463807
aF0.000489371
aF0.000913941
aF0.000667974
aF0.0
asS'uvig_306928'
p527
(lp528
F0.001695526
aF0.013033345
aF0.015709729
aF0.00501247
aF0.001368389
aF0.001297035
aF0.001023956
aF0.00166917
aF0.007585943
aF0.001269589
aF0.013612619
aF0.022738828
aF0.020723009
aF0.020350005
aF0.003238993
aF0.000642774
aF0.00104072
aF0.001057474
aF0.000625295
aF0.02958952
aF0.01439824
aF0.00410357
aF0.001975428
aF0.002846292
aF0.001957483
aF0.001096729
aF0.000534379
aF0.000448924
asS'uvig_521516'
p529
(lp530
F0.0
aF0.000987141
aF0.00667359
aF5.0888e-05
aF0.0
aF5.29402e-05
aF4.09583e-05
aF0.003338341
aF0.008060065
aF0.0
aF0.002876811
aF0.000235941
aF0.010501525
aF0.000978181
aF0.000420648
aF0.000642774
aF0.000594697
aF0.0
aF0.000875414
aF0.000285889
aF0.001551906
aF0.003255884
aF0.001207206
aF0.0
aF0.0
aF0.000243718
aF0.00026719
aF0.0
asS'uvig_438759'
p531
(lp532
F0.0
aF0.000185089
aF0.001997206
aF0.000559768
aF0.000129093
aF0.0
aF0.00047102
aF0.0
aF0.000648798
aF0.0
aF0.004805399
aF5.89853e-05
aF0.000840122
aF0.000748021
aF0.0
aF0.0
aF0.0
aF0.0
aF0.000125059
aF0.006861338
aF8.6217e-05
aF0.000924748
aF0.003950857
aF0.017077753
aF0.0
aF0.0
aF0.0
aF0.000897847
asS'uvig_230359'
p533
(lp534
F0.001271644
aF0.000709508
aF0.000730685
aF0.000356216
aF0.001704031
aF0.001429385
aF0.001351623
aF0.0
aF0.001048058
aF0.001692785
aF0.001783944
aF0.001032243
aF0.000560081
aF0.000728841
aF0.001261945
aF0.002571096
aF0.000446023
aF0.001691958
aF0.001125532
aF0.000857667
aF8.6217e-05
aF0.006569566
aF0.000482882
aF0.000650581
aF0.001957483
aF0.001949741
aF0.001603138
aF0.000448924
asS'uvig_223148'
p535
(lp536
F0.000989057
aF0.00276091
aF0.001753644
aF0.00038166
aF0.00056801
aF0.000688223
aF0.001085394
aF0.0
aF0.001197781
aF0.001375388
aF0.00143037
aF0.000471882
aF0.001540224
aF0.038571027
aF0.000336519
aF0.000428516
aF0.000371686
aF0.001268968
aF0.000875414
aF0.002001224
aF0.000603519
aF0.000577968
aF0.000395086
aF0.000243968
aF0.000734056
aF0.001096729
aF0.000534379
aF0.0
asS'uvig_188646'
p537
(lp538
F0.004521402
aF0.00151156
aF0.001120384
aF0.00114498
aF0.004492446
aF0.006299883
aF0.003604327
aF0.003338341
aF0.004042509
aF0.003597168
aF0.001960731
aF0.001769559
aF0.002100305
aF0.052112123
aF0.003323123
aF0.005999224
aF0.002230115
aF0.006133347
aF0.003751773
aF0.003716558
aF4.31085e-05
aF0.000712827
aF0.000790171
aF0.0
aF0.00538308
aF0.004143199
aF0.003339871
aF0.005611546
asS'uvig_39251'
p539
(lp540
F0.0
aF0.000323906
aF0.039408281
aF0.002239073
aF5.16373e-05
aF0.000317641
aF0.000737249
aF0.0
aF0.001097965
aF0.0
aF0.00061072
aF0.00056036
aF0.002520366
aF0.000824741
aF8.41297e-05
aF0.0
aF0.000148674
aF0.000634484
aF0.000375177
aF0.000857667
aF0.034745453
aF0.002909104
aF0.006870101
aF0.001057194
aF0.0
aF6.09294e-05
aF0.0
aF0.0
asS'uvig_45936'
p541
(lp542
F0.0
aF3.08482e-05
aF9.74247e-05
aF0.000305328
aF0.0
aF0.0
aF4.09583e-05
aF0.0
aF0.001073012
aF0.0
aF0.001623228
aF0.000235941
aF0.00014002
aF7.67201e-05
aF0.0
aF0.0
aF0.0
aF0.000211495
aF0.0
aF0.000285889
aF8.6217e-05
aF0.000308249
aF0.001536444
aF0.002358356
aF0.0
aF0.0
aF0.0
aF0.0
asS'uvig_185472'
p543
(lp544
F0.005227872
aF0.000555267
aF0.000730685
aF0.000178108
aF0.004285897
aF0.019508461
aF0.003481452
aF0.002670673
aF0.001646948
aF0.004866757
aF0.000707149
aF0.00112072
aF0.000280041
aF0.000613761
aF0.002523891
aF0.004070902
aF0.001635418
aF0.0040184
aF0.003126477
aF0.002001224
aF8.6217e-05
aF0.000616499
aF0.000307289
aF0.000325291
aF0.005627765
aF0.002193458
aF0.003740655
aF0.004040313
asS'uvig_378528'
p545
(lp546
F0.003461699
aF0.004966553
aF0.004993015
aF0.001857413
aF0.001936399
aF0.001905847
aF0.002068392
aF0.000667668
aF0.003069313
aF0.001692785
aF0.006026838
aF0.005426646
aF0.000980142
aF0.003836005
aF0.001598464
aF0.002356838
aF0.000594697
aF0.002326442
aF0.003501655
aF0.002858891
aF0.001681232
aF0.004122836
aF0.006189675
aF0.004066132
aF0.001957483
aF0.001888811
aF0.002003922
aF0.002244619
asS'uvig_861'
p547
(lp548
F0.000989057
aF0.000586115
aF0.001899781
aF0.000407104
aF0.00077456
aF0.001535266
aF0.001556414
aF0.000667668
aF0.001946393
aF0.000634794
aF0.000932151
aF0.002713323
aF0.005320773
aF0.001630302
aF0.001177816
aF0.002785354
aF0.001189395
aF0.000422989
aF0.000750355
aF0.000857667
aF0.000172434
aF0.002388933
aF0.000219492
aF0.0
aF0.001712798
aF0.002193458
aF0.002404707
aF0.000897847
asS'uvig_25407'
p549
(lp550
F0.000989057
aF0.009454959
aF0.001631863
aF0.003282277
aF0.000722922
aF0.000264701
aF0.000921561
aF0.001335336
aF0.000698705
aF0.000423196
aF0.056973711
aF0.002359412
aF0.005180752
aF0.004219605
aF0.000420648
aF0.000428516
aF0.000297349
aF0.000211495
aF0.001125532
aF0.000571778
aF0.00030176
aF0.056062861
aF0.001426698
aF0.000650581
aF0.000244685
aF0.000853011
aF0.000667974
aF0.0
asS'uvig_252359'
p551
(lp552
F0.006287575
aF0.030323736
aF0.045302474
aF0.035774279
aF0.002220405
aF0.001799967
aF0.009133692
aF0.001001502
aF0.015895546
aF0.001057991
aF0.053566538
aF0.038664856
aF0.04242616
aF0.007710369
aF0.000673038
aF0.001714064
aF0.001635418
aF0.001691958
aF0.005002364
aF0.015866844
aF0.007500879
aF0.03995683
aF0.026953622
aF0.021550497
aF0.000489371
aF0.002863681
aF0.000667974
aF0.001122309
asS'uvig_322655'
p553
(lp554
F0.000706469
aF0.000647811
aF0.002313836
aF0.002060965
aF0.000722922
aF0.001164684
aF0.001126352
aF0.001335336
aF0.00351848
aF0.000846392
aF0.001703586
aF0.003509625
aF0.001260183
aF0.000920641
aF0.000799232
aF0.003106741
aF0.000297349
aF0.001480463
aF0.000937943
aF0.002001224
aF0.072163633
aF0.001329326
aF0.00109746
aF0.000325291
aF0.001223427
aF0.001706023
aF0.000400784
aF0.000448924
asS'uvig_565291'
p555
(lp556
F0.000847763
aF0.000740356
aF0.000243562
aF0.000305328
aF0.000413099
aF0.000688223
aF0.000962519
aF0.000667668
aF0.001023104
aF0.000211598
aF0.001157153
aF0.00056036
aF0.0
aF0.00828577
aF0.003365188
aF0.00107129
aF0.000743372
aF0.000634484
aF0.000500236
aF0.0
aF0.000172434
aF0.000231187
aF0.000680425
aF0.0
aF0.000244685
aF0.000609294
aF0.000667974
aF0.0
asS'uvig_276225'
p557
(lp558
F0.00091841
aF0.001958858
aF0.001729288
aF0.000737876
aF0.000877834
aF0.000847043
aF0.00116731
aF0.001335336
aF0.002170977
aF0.000528995
aF0.003921463
aF0.005190705
aF0.000420061
aF0.001515222
aF0.001640529
aF0.000749903
aF0.000966383
aF0.000634484
aF0.001250591
aF0.001715335
aF0.001638123
aF0.076908228
aF0.001053562
aF0.001138517
aF0.001223427
aF0.001279517
aF0.000935164
aF0.001122309
asS'uvig_573395'
p559
(lp560
F0.012857738
aF0.043758107
aF0.000852466
aF0.012238569
aF0.000309824
aF0.0
aF0.002928516
aF0.0
aF0.000274491
aF0.0
aF0.000787507
aF0.001061735
aF0.002660386
aF0.008899531
aF0.0
aF0.000214258
aF0.0
aF0.000740232
aF0.000250118
aF0.0
aF0.000689736
aF0.000809155
aF0.001031613
aF0.0154513
aF0.0
aF0.000609294
aF0.000400784
aF0.0
asS'uvig_144402'
p561
(lp562
F0.000141294
aF0.000200513
aF0.002557398
aF0.001552085
aF5.16373e-05
aF0.0
aF0.00022527
aF0.0
aF0.002245838
aF0.0
aF0.000932151
aF0.000943765
aF0.001540224
aF0.000709661
aF0.0
aF0.000857032
aF0.000148674
aF0.0
aF0.000375177
aF0.000857667
aF0.102080934
aF0.001560513
aF0.001536444
aF0.0
aF0.0
aF0.0
aF0.0
aF0.0
asS'uvig_268562'
p563
(lp564
F0.0
aF0.000123393
aF0.002679179
aF0.0
aF0.0
aF5.29402e-05
aF0.00069629
aF0.0
aF0.004366908
aF0.0
aF0.000417861
aF5.89853e-05
aF0.0
aF0.000786381
aF0.0
aF0.0
aF0.0
aF0.0
aF0.000250118
aF0.001143556
aF0.006207624
aF0.002061418
aF4.38984e-05
aF0.0
aF0.0
aF0.0
aF0.0
aF0.0
asS'uvig_130847'
p565
(lp566
F7.06469e-05
aF0.002560397
aF4.87123e-05
aF0.000686988
aF0.000154912
aF0.000158821
aF0.000204791
aF0.0
aF0.000149723
aF0.000211598
aF0.009675084
aF0.003745566
aF0.000700102
aF0.001898822
aF0.0
aF0.000214258
aF0.0
aF0.0
aF0.000250118
aF0.0
aF0.0
aF0.014275801
aF8.77968e-05
aF0.0
aF0.0
aF0.000365576
aF0.0
aF0.0
asS'uvig_279364'
p567
(lp568
F0.0
aF0.002205643
aF0.009133563
aF0.002671621
aF0.001239296
aF0.000582342
aF0.000532457
aF0.0
aF0.00484103
aF0.0
aF0.004805399
aF0.00368658
aF0.000840122
aF0.001745382
aF0.0
aF0.000214258
aF0.000148674
aF0.000211495
aF0.001063002
aF0.00628956
aF0.000344868
aF0.003891649
aF0.024934295
aF0.002195711
aF0.000611714
aF0.000121859
aF0.001335948
aF0.0
asS'uvig_139142'
p569
(lp570
F0.002684583
aF0.01721327
aF0.000243562
aF0.003384053
aF0.001807306
aF0.002541129
aF0.002621329
aF0.001335336
aF0.001547133
aF0.002539177
aF0.072193486
aF0.034270452
aF0.006440935
aF0.011201134
aF0.001850853
aF0.002785354
aF0.000892046
aF0.001903453
aF0.003376595
aF0.001143556
aF0.0
aF0.075925683
aF0.000438984
aF0.000325291
aF0.001712798
aF0.002924611
aF0.002805491
aF0.001795695
asS'ivig_601'
p571
(lp572
F0.001271644
aF0.006107935
aF0.018973456
aF0.001195869
aF0.000671285
aF0.001111744
aF0.001023956
aF0.013353363
aF0.018840089
aF0.000846392
aF0.016843004
aF0.001917022
aF0.026463843
aF0.002742743
aF0.001892918
aF0.001714064
aF0.003196498
aF0.001057474
aF0.003564184
aF0.004145392
aF0.007112903
aF0.012233648
aF0.004148399
aF0.001057194
aF0.001223427
aF0.000731153
aF0.001202353
aF0.001346771
asS'uvig_126164'
p573
(lp574
F0.0
aF9.25445e-05
aF0.001363945
aF0.000966872
aF0.0
aF0.000211761
aF0.000450541
aF0.0
aF0.00079852
aF0.0
aF0.003776819
aF0.00100275
aF0.002380346
aF0.000498681
aF0.0
aF0.0
aF0.00052036
aF0.000211495
aF0.000125059
aF0.004574225
aF0.08319941
aF0.001001811
aF0.001821784
aF0.0
aF0.000244685
aF0.0
aF0.0
aF0.0
asS'uvig_152685'
p575
(lp576
F0.012292563
aF3.277277095
aF0.001193452
aF0.002366293
aF0.009088168
aF0.009529235
aF0.008068777
aF0.004673677
aF0.004391862
aF0.007405934
aF0.002908954
aF0.001533617
aF0.001960285
aF0.478675842
aF0.276997008
aF0.008784579
aF0.003196498
aF0.012901179
aF0.009129314
aF0.004574225
aF0.0
aF0.23405763
aF0.001207206
aF0.000650581
aF0.012968328
aF0.011942161
aF0.009752422
aF0.007182779
asS'uvig_74555'
p577
(lp578
F0.000141294
aF0.000709508
aF0.000389699
aF0.000305328
aF0.0
aF0.0
aF0.002088871
aF0.225338007
aF0.000648798
aF0.0
aF0.000546433
aF0.000117971
aF0.0
aF0.00026852
aF0.0
aF0.0
aF0.0
aF0.0
aF0.000125059
aF0.000285889
aF0.000172434
aF0.000154125
aF0.000307289
aF0.000325291
aF0.0
aF0.000121859
aF0.0
aF0.0
asS'uvig_234806'
p579
(lp580
F0.000211941
aF0.004041108
aF0.006113398
aF0.003663938
aF0.000103275
aF0.0
aF0.001146831
aF0.0
aF0.004192232
aF0.0
aF0.010816166
aF0.00970308
aF0.006580956
aF0.002723563
aF0.000546843
aF0.000214258
aF0.00052036
aF0.000211495
aF0.000125059
aF0.001858279
aF0.001250147
aF0.008342
aF0.012181808
aF0.003171583
aF0.0
aF0.000365576
aF0.00026719
aF0.0
asS'uvig_462788'
p581
(lp582
F0.022465719
aF0.035120624
aF0.079766454
aF0.033611538
aF0.011721671
aF0.016808511
aF0.024882143
aF0.005007511
aF0.018465783
aF0.021477209
aF0.031612775
aF0.050845318
aF0.020863029
aF0.027273993
aF0.027931057
aF0.041137539
aF0.009515158
aF0.021678211
aF0.035454252
aF0.045027531
aF0.010389149
aF0.0458521
aF0.029697272
aF0.022038433
aF0.02251106
aF0.030891202
aF0.027386939
aF0.01571233
asS'uvig_386033'
p583
(lp584
F0.0
aF6.16963e-05
aF0.000146137
aF0.00025444
aF0.0
aF0.0
aF0.0
aF0.0
aF0.000149723
aF0.0
aF0.000192859
aF0.000176956
aF0.218011655
aF0.003586664
aF0.0
aF0.0
aF0.0
aF0.0
aF0.000125059
aF0.0
aF0.0
aF7.70624e-05
aF0.0
aF0.0
aF0.0
aF0.0
aF0.0
aF0.0
asS'uvig_129987'
p585
(lp586
F0.001554232
aF0.000154241
aF0.000949891
aF0.000203552
aF0.000516373
aF0.000847043
aF0.001023956
aF0.0
aF0.000698705
aF0.000846392
aF0.00932151
aF0.000383404
aF0.0
aF0.00034524
aF0.000252389
aF0.0
aF0.000297349
aF0.000634484
aF0.000375177
aF0.0
aF8.6217e-05
aF0.000539436
aF0.000351187
aF0.000650581
aF0.000489371
aF0.000792082
aF0.000935164
aF0.000897847
asS'uvig_199299'
p587
(lp588
F0.000141294
aF0.000616963
aF0.012275509
aF0.001501197
aF0.0
aF0.0
aF6.14374e-05
aF0.0
aF0.00019963
aF0.0
aF0.001735729
aF0.017076241
aF0.023103355
aF0.000460321
aF0.0
aF0.0
aF0.000148674
aF0.0
aF0.0
aF0.0
aF0.001120821
aF0.000231187
aF0.004148399
aF0.000975872
aF0.0
aF0.0
aF0.0
aF0.0
asS'uvig_441164'
p589
(lp590
F0.001130351
aF0.000555267
aF0.020702744
aF0.001043204
aF0.000154912
aF0.000476462
aF0.000286708
aF0.0
aF0.00955729
aF0.000211598
aF0.001173225
aF0.001976007
aF0.0
aF0.013215036
aF0.000168259
aF0.000642774
aF0.000148674
aF0.0
aF0.000125059
aF0.001715335
aF0.00172434
aF0.000115594
aF0.001185257
aF0.0
aF0.000244685
aF0.000121859
aF0.00026719
aF0.0
asS'uvig_166606'
p591
(lp592
F0.001483585
aF0.012339262
aF0.002192055
aF0.004045598
aF0.001678213
aF0.001508795
aF0.001392581
aF0.001335336
aF0.001322549
aF0.001057991
aF0.044453959
aF0.024478894
aF0.008961301
aF0.010510653
aF0.002313567
aF0.002999612
aF0.000817709
aF0.001903453
aF0.002063475
aF0.001429445
aF0.00030176
aF0.052864774
aF0.001580343
aF0.001301162
aF0.000611714
aF0.002071599
aF0.001937125
aF0.001346771
asS'uvig_482941'
p593
(lp594
F0.0
aF0.000154241
aF0.000146137
aF5.0888e-05
aF0.0
aF5.29402e-05
aF4.09583e-05
aF0.001001502
aF0.0
aF0.000211598
aF0.01014116
aF0.000501375
aF0.0
aF0.00024934
aF0.0
aF0.0
aF0.0
aF0.0
aF0.0
aF0.0
aF0.000172434
aF7.70624e-05
aF8.77968e-05
aF0.0
aF0.0
aF0.0
aF0.000133595
aF0.0
asS'uvig_384644'
p595
(lp596
F0.000989057
aF0.001604104
aF0.027960882
aF0.005495906
aF0.000258187
aF0.000529402
aF0.00094204
aF0.002003005
aF0.013025863
aF0.000317397
aF0.003455387
aF0.009408153
aF0.002660386
aF0.013253396
aF0.000799232
aF0.00107129
aF0.000446023
aF0.000634484
aF0.000375177
aF0.004145392
aF0.072292958
aF0.004797131
aF0.004916622
aF0.000162645
aF0.0
aF0.000121859
aF0.00026719
aF0.000448924
asS'uvig_537319'
p597
(lp598
F0.0
aF0.001604104
aF0.00540707
aF0.001755637
aF0.000103275
aF5.29402e-05
aF0.000982998
aF0.000667668
aF0.004341954
aF0.0
aF0.011041168
aF0.022620858
aF0.005040732
aF0.005830727
aF0.000336519
aF0.0
aF0.000371686
aF0.0
aF0.0
aF0.016438622
aF0.007500879
aF0.008014485
aF0.012774436
aF0.008376231
aF0.0
aF0.000121859
aF0.0
aF0.0
asS'uvig_180978'
p599
(lp600
F0.0
aF0.001033413
aF0.017146743
aF0.000788764
aF0.0
aF0.0
aF0.004013909
aF0.000667668
aF0.001073012
aF0.0
aF0.00184823
aF0.001356662
aF0.0
aF0.001150801
aF0.0
aF0.0
aF0.0
aF0.0
aF0.000375177
aF0.002287113
aF0.023925219
aF0.000308249
aF0.004741028
aF0.000325291
aF0.0
aF0.0
aF0.0
aF0.0
asS'uvig_105790'
p601
(lp602
F0.000282588
aF0.000925445
aF0.002752247
aF0.001552085
aF0.000154912
aF0.000370581
aF0.000655332
aF0.012018027
aF0.003468573
aF0.000105799
aF0.002539308
aF0.004718823
aF0.00014002
aF0.008746091
aF0.000504778
aF0.001178419
aF0.000743372
aF0.000211495
aF0.000125059
aF0.000571778
aF0.000172434
aF0.002658651
aF0.000724324
aF0.000325291
aF0.0
aF0.0
aF0.000400784
aF0.000224462
asS'uvig_596511'
p603
(lp604
F0.000847763
aF0.02474022
aF0.000146137
aF0.087247513
aF0.001910581
aF0.00010588
aF0.00540649
aF0.0
aF0.000174676
aF0.0
aF0.001607157
aF0.000530868
aF0.001540224
aF0.000421961
aF0.000168259
aF0.000214258
aF0.000148674
aF0.0
aF0.000375177
aF0.00157239
aF0.000732845
aF0.000115594
aF0.00026339
aF0.033504924
aF0.0
aF0.000243718
aF0.000133595
aF0.000897847
asS'uvig_228107'
p605
(lp606
F0.000989057
aF0.000786628
aF0.006503097
aF0.001373977
aF0.000516373
aF0.000423522
aF0.003317619
aF0.001335336
aF0.002645099
aF0.000211598
aF0.001253582
aF0.002624845
aF0.002520366
aF0.001860462
aF0.001219881
aF0.000642774
aF0.00052036
aF0.000634484
aF0.000375177
aF0.003001835
aF0.002758944
aF0.001425654
aF0.000504832
aF0.000894549
aF0.000489371
aF0.000121859
aF0.000133595
aF0.000448924
asS'ivig_2899'
p607
(lp608
F0.001130351
aF0.007449829
aF0.028521074
aF0.000737876
aF0.000877834
aF0.000741163
aF0.000778207
aF0.015356368
aF0.032963918
aF0.000211598
aF0.016537644
aF0.00256586
aF0.039765774
aF0.003740105
aF0.00277628
aF0.001928322
aF0.003047824
aF0.000634484
aF0.004439598
aF0.004288336
aF0.010734017
aF0.020749038
aF0.00689205
aF0.001301162
aF0.001223427
aF0.000853011
aF0.001736733
aF0.000448924
asS'uvig_318656'
p609
(lp610
F0.00183682
aF0.00393314
aF0.002825316
aF0.003205945
aF0.001445845
aF0.001535266
aF0.006164218
aF0.000667668
aF0.001172827
aF0.001269589
aF0.006975061
aF0.013507631
aF0.005460793
aF0.007365129
aF0.001514334
aF0.00214258
aF0.000594697
aF0.001268968
aF0.001875886
aF0.001429445
aF8.6217e-05
aF0.000944014
aF0.00302899
aF0.001219839
aF0.001957483
aF0.001584164
aF0.00026719
aF0.0
asS'uvig_181906'
p611
(lp612
F0.002684583
aF0.001218502
aF0.000974247
aF0.00050888
aF0.001497482
aF0.001641146
aF0.001146831
aF0.000667668
aF0.001147873
aF0.002327579
aF0.023078773
aF0.001238691
aF0.0
aF0.000997361
aF0.002187372
aF0.002999612
aF0.000743372
aF0.002114947
aF0.001250591
aF0.001715335
aF8.6217e-05
aF0.012676757
aF0.000395086
aF0.000162645
aF0.002446854
aF0.001340447
aF0.002404707
aF0.001346771
asS'ivig_1166'
p613
(lp614
F0.003179111
aF0.006786594
aF0.019947702
aF0.002442625
aF0.001394208
aF0.001005864
aF0.001965996
aF0.01635787
aF0.025377975
aF0.000211598
aF0.014062623
aF0.005603602
aF0.027864046
aF0.005849907
aF0.002986604
aF0.001499806
aF0.003493847
aF0.001268968
aF0.002938889
aF0.001715335
aF0.010259824
aF0.012638226
aF0.003972806
aF0.002195711
aF0.000978742
aF0.001584164
aF0.001335948
aF0.001346771
asS'uvig_98366'
p615
(lp616
F0.001130351
aF0.000647811
aF0.000779397
aF0.00101776
aF0.0
aF0.0
aF0.000204791
aF0.0
aF0.000349353
aF0.0
aF0.065491642
aF0.001061735
aF0.0
aF0.001016541
aF0.0
aF0.000214258
aF0.0
aF0.0
aF0.0
aF0.0
aF0.0
aF0.000423843
aF0.000460933
aF0.000487936
aF0.000244685
aF0.0
aF0.0
aF0.0
asS'uvig_460500'
p617
(lp618
F0.000706469
aF0.247340503
aF0.000974247
aF0.00050888
aF0.000438917
aF0.000688223
aF0.00071677
aF0.009681188
aF0.011952851
aF0.000211598
aF0.002089304
aF0.106055548
aF0.038365571
aF0.002589303
aF0.000420648
aF0.000642774
aF0.000148674
aF0.001268968
aF0.000750355
aF0.000428834
aF0.002155425
aF0.001155935
aF0.000724324
aF0.001219839
aF0.001223427
aF0.001340447
aF0.000400784
aF0.000448924
asS'uvig_14473'
p619
(lp620
F0.0
aF0.00075578
aF0.00489559
aF0.000330772
aF0.000154912
aF0.0
aF0.001802163
aF0.0
aF0.001871532
aF0.0
aF0.003760747
aF0.001504125
aF0.002520366
aF0.000863101
aF0.0
aF0.0
aF0.000594697
aF0.0
aF0.0
aF0.002287113
aF0.00288827
aF0.000462374
aF0.002238819
aF0.006424488
aF0.0
aF0.000121859
aF0.0
aF0.000448924
asS'uvig_508641'
p621
(lp622
F0.0
aF0.0
aF0.004676384
aF0.00025444
aF0.0
aF0.0
aF4.09583e-05
aF0.001335336
aF9.9815e-05
aF0.0
aF8.03578e-05
aF0.002329919
aF0.0
aF3.836e-05
aF0.0
aF0.0
aF0.0
aF0.0
aF0.0
aF0.0
aF0.000258651
aF3.85312e-05
aF0.000877968
aF0.0
aF0.0
aF0.0
aF0.0
aF0.0
asS'uvig_573262'
p623
(lp624
F0.010031862
aF0.017706841
aF0.001729288
aF0.108849478
aF0.001265114
aF0.0
aF0.004136784
aF0.002003005
aF0.001097965
aF0.0
aF0.00512683
aF0.00044239
aF0.005320773
aF0.000728841
aF0.000168259
aF0.0
aF0.0
aF0.0
aF0.0
aF0.00314478
aF0.000474194
aF0.000154125
aF0.00026339
aF0.083030407
aF0.0
aF0.00097487
aF0.0
aF0.00359139
asS'uvig_184507'
p625
(lp626
F0.000141294
aF0.000200513
aF0.002484329
aF0.001781081
aF0.0
aF0.0
aF0.000163833
aF0.0
aF0.000474121
aF0.0
aF0.000273217
aF0.000412897
aF0.0
aF7.67201e-05
aF8.41297e-05
aF0.0
aF0.0
aF0.0
aF0.0
aF0.000285889
aF0.022847506
aF7.70624e-05
aF0.000241441
aF0.000325291
aF0.0
aF0.000365576
aF0.0
aF0.0
asS'uvig_360064'
p627
(lp628
F0.0
aF0.000709508
aF0.009328413
aF0.003155057
aF0.000206549
aF5.29402e-05
aF0.000430062
aF0.0
aF0.000973197
aF0.0
aF0.001012509
aF0.001386154
aF0.000280041
aF0.00030688
aF0.000420648
aF0.000642774
aF0.000148674
aF0.000422989
aF0.0
aF0.002287113
aF0.020907624
aF0.000231187
aF0.001338901
aF0.0
aF0.000244685
aF0.0
aF0.000133595
aF0.000448924
asS'uvig_89263'
p629
(lp630
F0.000706469
aF0.046873771
aF0.00063326
aF0.027123315
aF0.000671285
aF0.000741163
aF0.001433539
aF0.002670673
aF0.000848428
aF0.0
aF0.001607157
aF0.005367661
aF0.006860996
aF0.002013902
aF0.000336519
aF0.000642774
aF0.000297349
aF0.001057474
aF0.001000473
aF0.001143556
aF0.000172434
aF0.00458521
aF0.001075511
aF0.001789098
aF0.000734056
aF0.000243718
aF0.00026719
aF0.000448924
asS'uvig_549670'
p631
(lp632
F0.025786124
aF0.038128319
aF4.87123e-05
aF0.086356972
aF0.001704031
aF0.0
aF0.003194744
aF0.000667668
aF0.001372457
aF0.0
aF0.000562505
aF0.000176956
aF0.000700102
aF0.001342602
aF0.0
aF0.0
aF0.0
aF0.000422989
aF0.000250118
aF0.0
aF0.0
aF7.70624e-05
aF8.77968e-05
aF0.146624704
aF0.0
aF0.001157658
aF0.00026719
aF0.001346771
asS'uvig_176146'
p633
(lp634
F0.002119407
aF0.008236457
aF0.003580357
aF0.006233783
aF0.003201514
aF0.003679343
aF0.00210935
aF0.002003005
aF0.003468573
aF0.001904383
aF0.004339324
aF0.007992507
aF0.021563131
aF0.006425308
aF0.001766724
aF0.00321387
aF0.001338069
aF0.0040184
aF0.002313593
aF0.002858891
aF0.00086217
aF0.012310711
aF0.004302044
aF0.003252905
aF0.003670281
aF0.003290187
aF0.003740655
aF0.001795695
asS'uvig_509703'
p635
(lp636
F0.0
aF0.000185089
aF0.0
aF0.00050888
aF0.0
aF5.29402e-05
aF0.0
aF0.0
aF0.004915891
aF0.0
aF0.000289288
aF0.005485632
aF0.0
aF7.67201e-05
aF0.0
aF0.000214258
aF0.0
aF0.0
aF0.000125059
aF0.0
aF0.0
aF0.00327515
aF0.011237992
aF0.000731904
aF0.0
aF0.0
aF0.007815297
aF0.000448924
asS'uvig_360071'
p637
(lp638
F0.0
aF0.000154241
aF0.000292274
aF0.008523744
aF0.0
aF0.0
aF0.000163833
aF0.001335336
aF0.012327158
aF0.0
aF0.001285725
aF0.010292933
aF0.001400203
aF0.000498681
aF0.000210324
aF0.0
aF0.0
aF0.0
aF0.000625295
aF0.00943434
aF8.6217e-05
aF0.001753169
aF0.004631282
aF0.000894549
aF0.0
aF0.000121859
aF0.0
aF0.0
asS'uvig_209614'
p639
(lp640
F0.004380109
aF0.00151156
aF0.004457179
aF0.002137297
aF0.004853908
aF0.005770481
aF0.004587325
aF0.004673677
aF0.005489827
aF0.003808766
aF0.003005383
aF0.003244191
aF0.002660386
aF0.002339963
aF0.005300171
aF0.00535645
aF0.002155778
aF0.004864379
aF0.003751773
aF0.002858891
aF0.002758944
aF0.002697182
aF0.001843733
aF0.001463807
aF0.005138394
aF0.004752493
aF0.004208237
aF0.005387084
asS'uvig_485786'
p641
(lp642
F0.0
aF0.000940869
aF0.002143343
aF0.003358609
aF0.000103275
aF0.00010588
aF0.000573416
aF0.0
aF0.002420515
aF0.0
aF0.00276431
aF0.003922522
aF0.001260183
aF0.001131621
aF4.20648e-05
aF0.0
aF0.000148674
aF0.000105747
aF0.000812884
aF0.005717782
aF0.00116393
aF0.003198088
aF0.006387218
aF0.005692584
aF0.0
aF0.000121859
aF0.0
aF0.000448924
asS'uvig_186352'
p643
(lp644
F0.0
aF0.001835465
aF0.000365343
aF0.002035521
aF0.0
aF0.00010588
aF0.000102396
aF0.001001502
aF9.9815e-05
aF0.0
aF0.039600345
aF0.014510381
aF0.001540224
aF0.006156787
aF0.000252389
aF0.000428516
aF0.0
aF0.000211495
aF0.000625295
aF0.000285889
aF0.000172434
aF0.038974285
aF0.000438984
aF0.000162645
aF0.0
aF0.000731153
aF0.000133595
aF0.0
asS'uvig_530022'
p645
(lp646
F0.00204876
aF0.037141178
aF0.023771621
aF0.023866482
aF0.00134257
aF0.001641146
aF0.004259659
aF0.001335336
aF0.007161729
aF0.001057991
aF0.033702079
aF0.040198474
aF0.026603863
aF0.010529833
aF0.00138814
aF0.000857032
aF0.000743372
aF0.001691958
aF0.003814302
aF0.01729629
aF0.001896774
aF0.031711158
aF0.034548046
aF0.010653265
aF0.003180911
aF0.005483645
aF0.003206276
aF0.004713699
asS'uvig_120986'
p647
(lp648
F0.000141294
aF0.001079685
aF0.003141946
aF0.000203552
aF5.16373e-05
aF0.000688223
aF4.09583e-05
aF0.000667668
aF0.000848428
aF0.0
aF0.001398226
aF0.001828544
aF0.001120163
aF0.000537041
aF0.0
aF0.0
aF0.000148674
aF0.0
aF0.000250118
aF0.000571778
aF0.0
aF0.003833852
aF0.000438984
aF0.001789098
aF0.000244685
aF0.000121859
aF0.000133595
aF0.0
asS'uvig_10847'
p649
(lp650
F0.000141294
aF0.000447298
aF0.018096634
aF5.0888e-05
aF0.000129093
aF0.000158821
aF0.000389103
aF0.000333834
aF0.000324399
aF0.000211598
aF0.000321431
aF0.000471882
aF0.0
aF0.0002877
aF0.000925427
aF0.0
aF0.000148674
aF0.0
aF0.000250118
aF0.0
aF0.040909969
aF0.000154125
aF0.00028534
aF0.000406613
aF0.0
aF0.000121859
aF0.000133595
aF0.0
asS'uvig_207292'
p651
(lp652
F0.000423881
aF0.000894596
aF0.024063895
aF0.000432548
aF0.000671285
aF0.00010588
aF0.002989953
aF0.000667668
aF0.000149723
aF0.0
aF0.0065572
aF0.012593359
aF0.015402236
aF0.000421961
aF0.000336519
aF0.0
aF0.0
aF0.000211495
aF0.000375177
aF0.020298125
aF0.000172434
aF0.000192656
aF0.065693966
aF0.000325291
aF0.0
aF0.000365576
aF0.000133595
aF0.0
asS'uvig_110632'
p653
(lp654
F0.007276632
aF0.00953208
aF0.021652634
aF0.016411387
aF0.006712851
aF0.007093986
aF0.00493547
aF0.04006009
aF0.026950062
aF0.008040728
aF0.01669836
aF0.007373161
aF0.023943477
aF0.005101886
aF0.008455034
aF0.010070127
aF0.005798299
aF0.007402316
aF0.007878723
aF0.006003671
aF0.006724926
aF0.024563625
aF0.008055358
aF0.003578196
aF0.00538308
aF0.005483645
aF0.004275034
aF0.002244619
asS'uvig_271051'
p655
(lp656
F0.001130351
aF9.25445e-05
aF0.000243562
aF0.0
aF0.000981109
aF0.001455855
aF0.001269706
aF0.000667668
aF0.000449168
aF0.002539177
aF0.005882194
aF0.000117971
aF0.0
aF0.00015344
aF0.000673038
aF0.000857032
aF0.000297349
aF0.000422989
aF0.000625295
aF0.000285889
aF0.0
aF0.000115594
aF0.00026339
aF0.0
aF0.000978742
aF0.001218588
aF0.000801569
aF0.000448924
asS'uvig_250717'
p657
(lp658
F0.0
aF0.000539843
aF0.000414055
aF0.000407104
aF0.0
aF5.29402e-05
aF8.19165e-05
aF0.0
aF0.000349353
aF0.0
aF0.001542871
aF0.009791558
aF0.000280041
aF0.00040278
aF0.0
aF0.0
aF0.0
aF0.000211495
aF0.0
aF0.0
aF8.6217e-05
aF0.002022887
aF0.003841111
aF0.000975872
aF0.0
aF0.000121859
aF0.002671896
aF0.0
asS'uvig_328398'
p659
(lp660
F0.009254746
aF0.05307425
aF0.037825131
aF0.028090188
aF0.001936399
aF0.001349975
aF0.007433924
aF0.003338341
aF0.011229192
aF0.000423196
aF0.03299493
aF0.036777327
aF0.016242358
aF0.01636056
aF0.001093686
aF0.00107129
aF0.00052036
aF0.000845979
aF0.004377068
aF0.018153957
aF0.006207624
aF0.02816629
aF0.030904478
aF0.033098311
aF0.001957483
aF0.002619964
aF0.001469543
aF0.000673386
asS'uvig_92258'
p661
(lp662
F0.009113452
aF0.026868743
aF0.031224609
aF0.017963472
aF0.005267006
aF0.006326353
aF0.005304095
aF0.002003005
aF0.004391862
aF0.004866757
aF0.0049179
aF0.006016499
aF0.0082612
aF0.003087984
aF0.004374744
aF0.006213482
aF0.003270836
aF0.006979326
aF0.006315484
aF0.007433116
aF0.000905279
aF0.003737524
aF0.038213563
aF0.006831101
aF0.006361821
aF0.007677103
aF0.006145362
aF0.003142466
asS'uvig_24628'
p663
(lp664
F0.0
aF0.007573222
aF0.000146137
aF0.00076332
aF0.0
aF0.0
aF0.0
aF0.0
aF4.99075e-05
aF0.0
aF0.0016393
aF0.002654338
aF0.0
aF0.0001918
aF0.0
aF0.0
aF0.0
aF0.0
aF0.0
aF0.00157239
aF0.0
aF0.000847686
aF0.000680425
aF0.000650581
aF0.0
aF0.0
aF0.000133595
aF0.0
asS'uvig_527170'
p665
(lp666
F0.000989057
aF0.012632319
aF0.000901178
aF0.002391737
aF0.000516373
aF0.000635282
aF0.000634853
aF0.001001502
aF0.000773567
aF0.000423196
aF0.035148521
aF0.020585865
aF0.003500508
aF0.00830495
aF0.000420648
aF0.000857032
aF0.000148674
aF0.000422989
aF0.001250591
aF0.000857667
aF0.000129326
aF0.033425795
aF0.00028534
aF0.0
aF0.000978742
aF0.00097487
aF0.001469543
aF0.000897847
asS'uvig_300460'
p667
(lp668
F0.000141294
aF0.00033933
aF0.011228194
aF0.000661544
aF0.000129093
aF0.0
aF0.001617851
aF0.0
aF0.005814226
aF0.0
aF0.00102858
aF0.002742816
aF0.005460793
aF0.001074081
aF0.000588908
aF0.000107129
aF0.000594697
aF0.0
aF0.000125059
aF0.000857667
aF0.02388211
aF0.001117404
aF0.001953479
aF0.0
aF0.0
aF0.0
aF0.0
aF0.0
asS'uvig_360411'
p669
(lp670
F0.0
aF0.000447298
aF0.047080475
aF0.000661544
aF0.0
aF0.000211761
aF0.00118779
aF0.0
aF0.00019963
aF0.0
aF0.000948223
aF0.000353912
aF0.0
aF0.000920641
aF0.0
aF0.0
aF0.0
aF0.0
aF0.0
aF0.000571778
aF0.0
aF0.001406388
aF0.000175594
aF0.000813226
aF0.0
aF0.000243718
aF0.0
aF0.0
asS'uvig_443747'
p671
(lp672
F0.001130351
aF0.002437004
aF0.000584548
aF0.001882857
aF0.0
aF0.0
aF0.001146831
aF0.002003005
aF0.000898335
aF0.000634794
aF0.003246457
aF0.000589853
aF0.000700102
aF6.869632231
aF0.000252389
aF0.001178419
aF0.0
aF0.000317242
aF0.0
aF0.000285889
aF0.010604692
aF0.000847686
aF0.000790171
aF0.004310099
aF0.0
aF0.001218588
aF0.0
aF0.000448924
asS'uvig_304456'
p673
(lp674
F0.0
aF0.018616861
aF0.000340986
aF0.14788059
aF0.001600757
aF0.000158821
aF0.000163833
aF0.0
aF0.000274491
aF0.0
aF0.004885757
aF0.000235941
aF0.0
aF0.0001918
aF0.0
aF0.0
aF0.0
aF0.0
aF0.0
aF0.000857667
aF0.000344868
aF0.000231187
aF0.000482882
aF0.047736385
aF0.0
aF0.001462305
aF0.0
aF0.000448924
asS'uvig_416283'
p675
(lp676
F0.001695526
aF0.022719666
aF0.00063326
aF0.003155057
aF0.001084384
aF0.001852907
aF0.002641808
aF0.00166917
aF0.001222734
aF0.001798584
aF0.072980993
aF0.04305926
aF0.005600813
aF0.012946516
aF0.003407252
aF0.004392289
aF0.001635418
aF0.003172421
aF0.00406442
aF0.003287724
aF0.000172434
aF0.088872158
aF0.000965765
aF0.000975872
aF0.001468113
aF0.00298554
aF0.003807452
aF0.001122309
asS'uvig_137035'
p677
(lp678
F0.000141294
aF0.000524419
aF0.010814139
aF0.001552085
aF5.16373e-05
aF5.29402e-05
aF0.001617851
aF0.0
aF0.001272642
aF0.000211598
aF0.000594648
aF0.002064485
aF0.000840122
aF0.000959001
aF0.000336519
aF0.000428516
aF0.000297349
aF0.000211495
aF0.000250118
aF0.002001224
aF0.022373313
aF0.000385312
aF0.000724324
aF0.0
aF0.000244685
aF0.000121859
aF0.000133595
aF0.000897847
asS'uvig_540511'
p679
(lp680
F0.000141294
aF0.000539843
aF0.000901178
aF0.000814208
aF5.16373e-05
aF0.0
aF0.0
aF0.0
aF0.000449168
aF0.0
aF0.001558942
aF0.000530868
aF0.000840122
aF0.000537041
aF0.0
aF0.0
aF0.000148674
aF0.0
aF0.000125059
aF0.018582791
aF0.000431085
aF0.000308249
aF0.009394259
aF0.000569258
aF0.0
aF0.0
aF0.0
aF0.0
asS'uvig_540047'
p681
(lp682
F0.000989057
aF0.000308482
aF0.008475947
aF0.00025444
aF0.000413099
aF0.000688223
aF0.00069629
aF0.0
aF0.000648798
aF0.000423196
aF0.002073232
aF0.000884779
aF0.000420061
aF0.00030688
aF0.001808788
aF0.000857032
aF0.000446023
aF0.000845979
aF0.000625295
aF0.0
aF0.000258651
aF0.000616499
aF0.008362646
aF0.000487936
aF0.001468113
aF0.001096729
aF0.00026719
aF0.0
asS'uvig_122251'
p683
(lp684
F0.0
aF0.002915151
aF0.014321427
aF0.002442625
aF7.7456e-05
aF5.29402e-05
aF0.003174265
aF0.0
aF0.007211637
aF0.0
aF0.012664396
aF0.003391654
aF0.007001017
aF0.003126344
aF0.000420648
aF0.0
aF0.000669035
aF0.0
aF0.000812884
aF0.020726959
aF0.000991496
aF0.006492503
aF0.011281891
aF0.014556751
aF0.000734056
aF0.000182788
aF0.0
aF0.0
asS'uvig_474482'
p685
(lp686
F0.000777116
aF0.00049357
aF0.006844083
aF0.002798841
aF5.16373e-05
aF0.000264701
aF0.00094204
aF0.000333834
aF0.001023104
aF0.0
aF0.000707149
aF0.0020055
aF0.001260183
aF0.000882281
aF0.000883362
aF0.000107129
aF0.000148674
aF0.000422989
aF0.001125532
aF0.001143556
aF0.016596773
aF0.001733903
aF0.00109746
aF0.001138517
aF0.0
aF0.0010358
aF0.000133595
aF0.000448924
asS'uvig_503939'
p687
(lp688
F0.000423881
aF0.01830838
aF0.000876822
aF0.001628417
aF0.00077456
aF0.000741163
aF0.000921561
aF0.000667668
aF0.00079852
aF0.000211598
aF0.001591085
aF0.003303176
aF0.002800407
aF0.001898822
aF0.000504778
aF0.001714064
aF0.000594697
aF0.000634484
aF0.000875414
aF0.001858279
aF0.001077713
aF0.007937422
aF0.003489923
aF0.001463807
aF0.000489371
aF0.001096729
aF0.000801569
aF0.0
asS'uvig_118796'
p689
(lp690
F0.0
aF0.001280198
aF0.006137755
aF0.034858295
aF0.000180731
aF0.000158821
aF0.000860123
aF0.0
aF0.001197781
aF0.0
aF0.002635737
aF0.045389179
aF0.001260183
aF0.001342602
aF0.000336519
aF0.000428516
aF0.00052036
aF0.000211495
aF0.001563239
aF0.006861338
aF0.000819062
aF0.00737872
aF0.009899091
aF0.006749778
aF0.0
aF0.001584164
aF0.0
aF0.002020157
asS'uvig_219929'
p691
(lp692
F0.001978114
aF0.001465287
aF0.000681973
aF0.00050888
aF0.001600757
aF0.001905847
aF0.001720247
aF0.001335336
aF0.000748613
aF0.001692785
aF0.010880452
aF0.001356662
aF0.0
aF0.000805561
aF0.001009556
aF0.002356838
aF0.000297349
aF0.001480463
aF0.001750827
aF0.001429445
aF0.0
aF0.049242843
aF0.000658476
aF0.000162645
aF0.001712798
aF0.001340447
aF0.001736733
aF0.000897847
asS'uvig_74768'
p693
(lp694
F0.01441197
aF0.023814775
aF0.003629069
aF0.141519588
aF0.000490555
aF0.0
aF0.004853554
aF0.000667668
aF0.001621994
aF0.0
aF0.006283983
aF0.001297676
aF0.009521383
aF0.000613761
aF0.001177816
aF0.000642774
aF0.000148674
aF0.000422989
aF0.001250591
aF0.003001835
aF0.001250147
aF0.000520171
aF0.000329238
aF0.111412005
aF0.0
aF0.001523235
aF0.000534379
aF0.00965186
asS'uvig_126335'
p695
(lp696
F0.019427901
aF0.026051267
aF0.005236576
aF0.158694295
aF0.001574938
aF0.0
aF0.007126737
aF0.0
aF0.001547133
aF0.0
aF0.012567967
aF0.001061735
aF0.010501525
aF0.001591942
aF0.000925427
aF0.0
aF7.43372e-05
aF0.000211495
aF0.000187589
aF0.004431281
aF0.000689736
aF0.000577968
aF0.000592628
aF0.180780209
aF0.0
aF0.003472975
aF0.0
aF0.000448924
asS'uvig_97882'
p697
(lp698
F0.00755922
aF0.009023085
aF0.018924743
aF0.037886132
aF0.002220405
aF0.000635282
aF0.008294048
aF0.010348857
aF0.004566538
aF0.0
aF0.004741113
aF0.007638595
aF0.006160895
aF0.006617108
aF0.000588908
aF0.0
aF0.00104072
aF0.0
aF0.000125059
aF0.010292007
aF0.002414076
aF0.001290794
aF0.00164619
aF0.086201989
aF0.0
aF0.000609294
aF0.00026719
aF0.000448924
asS'uvig_282601'
p699
(lp700
F0.00091841
aF0.002329036
aF0.001753644
aF0.004452702
aF0.000154912
aF0.00010588
aF0.002191267
aF0.0
aF0.001422364
aF0.0
aF0.001800016
aF0.039785577
aF0.006720976
aF0.009148871
aF0.000504778
aF0.0
aF0.000148674
aF0.000528737
aF0.0
aF0.000285889
aF0.003879765
aF0.003159556
aF0.001733987
aF0.027080436
aF0.000978742
aF0.0
aF0.0
aF0.0
asS'uvig_142442'
p701
(lp702
F0.001271644
aF0.407750907
aF0.014345784
aF0.007938531
aF0.000877834
aF0.001535266
aF0.005304095
aF0.018360875
aF0.014323459
aF0.001481187
aF0.029121682
aF0.091338718
aF0.110896102
aF0.019352644
aF0.000462713
aF0.00107129
aF0.000148674
aF0.001903453
aF0.000875414
aF0.002573002
aF0.00517302
aF0.015643658
aF0.006738405
aF0.002683647
aF0.002324512
aF0.001340447
aF0.001335948
aF0.001795695
asS'uvig_308234'
p703
(lp704
F0.000282588
aF0.003994836
aF0.000194849
aF0.000814208
aF0.000103275
aF0.000264701
aF0.000204791
aF0.0
aF0.000349353
aF0.0
aF0.020089461
aF0.00813997
aF0.000420061
aF0.003548304
aF8.41297e-05
aF0.0
aF0.0
aF0.0
aF0.000375177
aF0.0
aF0.0
aF0.0196509
aF0.000351187
aF0.0
aF0.0
aF0.000182788
aF0.0
aF0.0
asS'uvig_389121'
p705
(lp706
F0.000141294
aF0.003424145
aF0.000657617
aF0.0006361
aF0.000154912
aF5.29402e-05
aF0.000286708
aF0.0
aF0.000249538
aF0.000211598
aF0.007280421
aF0.000589853
aF0.016662419
aF0.000575401
aF0.000504778
aF0.0
aF0.000446023
aF0.000211495
aF0.000625295
aF0.0
aF0.000258651
aF0.000674296
aF0.001536444
aF0.000162645
aF0.0
aF0.000853011
aF0.001603138
aF0.000448924
asS'uvig_299451'
p707
(lp708
F0.000565175
aF0.001079685
aF0.001704932
aF0.000915984
aF5.16373e-05
aF0.000317641
aF0.000655332
aF0.00166917
aF0.000748613
aF0.000423196
aF0.003825033
aF0.005898529
aF0.003640529
aF0.005907447
aF8.41297e-05
aF0.0
aF0.000446023
aF0.000845979
aF0.000625295
aF0.000285889
aF0.000819062
aF0.000751358
aF0.001624241
aF0.000406613
aF0.000244685
aF0.000243718
aF0.00026719
aF0.001122309
asS'uvig_176448'
p709
(lp710
F0.000706469
aF0.000894596
aF0.000389699
aF0.000356216
aF0.000671285
aF0.001429385
aF0.000368624
aF0.0
aF0.00039926
aF0.000423196
aF0.015605493
aF0.00100275
aF0.000420061
aF0.0001918
aF0.000841297
aF0.0
aF0.000594697
aF0.000845979
aF0.000375177
aF0.000857667
aF8.6217e-05
aF0.009363076
aF0.000131695
aF0.000162645
aF0.000978742
aF0.001218588
aF0.002003922
aF0.000448924
asS'uvig_88880'
p711
(lp712
F0.000565175
aF0.00869918
aF0.000925534
aF0.001882857
aF0.000671285
aF0.000741163
aF0.00069629
aF0.000333834
aF0.00059889
aF0.001057991
aF0.032914573
aF0.016869792
aF0.002800407
aF0.008784451
aF0.001093686
aF0.001928322
aF0.000148674
aF0.002326442
aF0.001063002
aF0.001429445
aF0.000603519
aF0.036585352
aF0.000636527
aF0.000975872
aF0.000734056
aF0.001157658
aF0.002271112
aF0.000448924
asS'uvig_540784'
p713
(lp714
F0.903362087
aF0.001634952
aF0.000487123
aF0.000992316
aF0.0
aF0.000264701
aF0.000122875
aF0.000667668
aF0.00039926
aF0.0
aF0.002362521
aF0.001887529
aF0.000280041
aF0.001611122
aF8.41297e-05
aF0.0
aF0.0
aF0.000211495
aF0.000125059
aF0.000285889
aF0.000258651
aF0.000674296
aF0.000987714
aF0.003334228
aF0.0
aF0.0
aF0.0
aF0.052748535
asS'uvig_309497'
p715
(lp716
F0.000141294
aF0.017537176
aF0.030907978
aF0.010432044
aF0.000258187
aF0.0
aF0.00024575
aF0.001335336
aF0.000299445
aF0.0
aF0.003214314
aF0.001297676
aF0.004900712
aF0.001227521
aF0.0
aF0.0
aF0.000371686
aF0.000422989
aF0.000750355
aF0.001715335
aF0.0
aF0.005798942
aF0.034701691
aF0.007481682
aF0.0
aF0.000487435
aF0.000133595
aF0.0
asS'uvig_519284'
p717
(lp718
F0.000706469
aF0.001264774
aF0.052852887
aF0.007302431
aF0.0
aF0.0
aF0.004198222
aF0.000667668
aF0.004167278
aF0.000211598
aF0.001591085
aF0.044533892
aF0.032624737
aF0.0003836
aF0.000252389
aF0.000214258
aF0.000148674
aF0.0
aF0.000250118
aF0.000571778
aF0.000172434
aF0.000539436
aF0.024627006
aF0.000650581
aF0.0
aF0.000853011
aF0.0
aF0.0
asS'uvig_88310'
p719
(lp720
F0.000706469
aF0.001681224
aF0.004481535
aF0.000915984
aF0.000877834
aF0.001429385
aF0.001269706
aF0.0
aF0.000873382
aF0.001269589
aF0.000707149
aF0.000943765
aF0.002380346
aF0.001361782
aF0.000630973
aF0.001928322
aF0.000297349
aF0.000845979
aF0.001000473
aF0.000857667
aF0.000258651
aF0.000674296
aF0.000241441
aF0.000569258
aF0.002202169
aF0.00097487
aF0.000534379
aF0.001795695
asS'uvig_83342'
p721
(lp722
F0.007771161
aF0.017598872
aF0.004700741
aF0.01814158
aF0.008107059
aF0.010376278
aF0.009338483
aF0.005341345
aF0.017268002
aF0.010579906
aF0.020057318
aF0.027339681
aF0.06342921
aF0.015804339
aF0.006646246
aF0.013712513
aF0.001932766
aF0.010786232
aF0.011380377
aF0.007433116
aF0.001508798
aF0.029746068
aF0.007857815
aF0.009514748
aF0.00856399
aF0.011271938
aF0.009084448
aF0.005611546
asS'uvig_86209'
p723
(lp724
F0.000282588
aF0.000308482
aF0.000608904
aF0.000305328
aF0.000619648
aF0.000847043
aF0.000655332
aF0.0
aF0.000249538
aF0.000423196
aF0.01742158
aF0.002034992
aF0.0
aF0.000498681
aF0.000588908
aF0.000857032
aF0.000446023
aF0.000740232
aF0.000375177
aF0.000571778
aF0.000172434
aF0.00082842
aF0.000351187
aF0.0
aF0.000244685
aF0.000609294
aF0.000667974
aF0.000897847
asS'uvig_26361'
p725
(lp726
F0.0
aF0.0
aF4.87123e-05
aF0.00025444
aF0.0
aF0.0
aF0.0
aF0.0
aF4.99075e-05
aF0.0
aF0.006155411
aF0.0
aF0.0
aF3.836e-05
aF8.41297e-05
aF0.0
aF0.0
aF0.0
aF0.0
aF0.0
aF0.0
aF0.000231187
aF4.38984e-05
aF0.0
aF0.0
aF0.0
aF0.0
aF0.0
asS'uvig_260892'
p727
(lp728
F0.000141294
aF0.000431874
aF0.002849672
aF0.00025444
aF0.0
aF0.0
aF0.001433539
aF0.0
aF0.002220885
aF0.000211598
aF0.001880374
aF0.001386154
aF0.000980142
aF0.001035721
aF0.000168259
aF0.000214258
aF0.000297349
aF0.0
aF0.000125059
aF0.002430057
aF0.001120821
aF0.000520171
aF0.001163308
aF0.003578196
aF0.0
aF0.000243718
aF0.0
aF0.000673386
asS'uvig_529959'
p729
(lp730
F0.001695526
aF0.007557798
aF0.006405672
aF0.003562161
aF0.000206549
aF0.0
aF0.000839644
aF0.000667668
aF0.002869682
aF0.0
aF0.006428627
aF0.010764815
aF0.006860996
aF0.003049624
aF0.000588908
aF0.0
aF0.000297349
aF0.0
aF0.000500236
aF0.011864397
aF0.002802053
aF0.010191496
aF0.010886805
aF0.005204648
aF0.0
aF0.000731153
aF0.0
aF0.001571233
asS'uvig_111515'
p731
(lp732
F0.000565175
aF0.005490972
aF0.000730685
aF5.0888e-05
aF0.0
aF0.0
aF0.000163833
aF0.004006009
aF0.084393619
aF0.0
aF0.000257145
aF0.008582359
aF0.0
aF0.005792367
aF0.0
aF0.0
aF0.001338069
aF0.0
aF0.000250118
aF0.056034261
aF0.001982991
aF0.001830231
aF8.77968e-05
aF0.000487936
aF0.000244685
aF0.000243718
aF0.0
aF0.0
asS'uvig_524473'
p733
(lp734
F0.0
aF0.000647811
aF0.000243562
aF0.000407104
aF0.0
aF0.00010588
aF0.000368624
aF0.0
aF0.0
aF0.0
aF0.038507478
aF0.000412897
aF0.0
aF0.000460321
aF0.000757167
aF0.000214258
aF0.000594697
aF0.0
aF0.000125059
aF0.0
aF0.0
aF0.000346781
aF0.00026339
aF0.000487936
aF0.000244685
aF0.0
aF0.0
aF0.000448924
asS'uvig_123540'
p735
(lp736
F0.0
aF6.16963e-05
aF0.0
aF5.0888e-05
aF2.58187e-05
aF0.0
aF0.0
aF0.0
aF0.000274491
aF0.0
aF0.001221439
aF5.89853e-05
aF0.0
aF0.007269229
aF0.0
aF0.0
aF0.0
aF0.0
aF0.0
aF0.0
aF0.000560411
aF3.85312e-05
aF0.0
aF0.000406613
aF0.0
aF0.0
aF0.0
aF0.0
asS'uvig_294945'
p737
(lp738
F0.000423881
aF0.0008329
aF0.003044521
aF0.00076332
aF0.0
aF5.29402e-05
aF0.00024575
aF0.001001502
aF0.0179168
aF0.000211598
aF0.002025018
aF0.00569208
aF0.000280041
aF0.0003836
aF0.000168259
aF0.000214258
aF7.43372e-05
aF0.0
aF0.0
aF0.000857667
aF0.001508798
aF0.000847686
aF0.001404749
aF0.000406613
aF0.0
aF0.0
aF0.000133595
aF0.000897847
asS'uvig_7440'
p739
(lp740
F0.0
aF0.000370178
aF0.000146137
aF0.04770752
aF0.0
aF0.0
aF0.000163833
aF0.0
aF4.99075e-05
aF0.0
aF0.000450004
aF0.000235941
aF0.000280041
aF0.02462715
aF0.0
aF0.0
aF0.000148674
aF0.0
aF0.000125059
aF0.000285889
aF0.0
aF0.000288984
aF0.000131695
aF0.000162645
aF0.0
aF0.000426506
aF0.0
aF0.004040313
asS'uvig_266196'
p741
(lp742
F0.000282588
aF0.000570691
aF0.029300471
aF0.000966872
aF0.000154912
aF0.00010588
aF0.00094204
aF0.000667668
aF0.0023207
aF0.000634794
aF0.002475022
aF0.002093978
aF0.001400203
aF0.001783742
aF0.001051621
aF0.000857032
aF0.000892046
aF0.0
aF0.000750355
aF0.000857667
aF0.04345337
aF0.001926559
aF0.001953479
aF0.000731904
aF0.0
aF0.000853011
aF0.00026719
aF0.0
asS'uvig_229040'
p743
(lp744
F0.000141294
aF3.08482e-05
aF0.000194849
aF0.000305328
aF0.0
aF0.0
aF0.000122875
aF0.0
aF0.04751196
aF0.0
aF0.000337503
aF0.000206449
aF0.0
aF0.004142885
aF0.000210324
aF0.0
aF0.0
aF0.0
aF0.0
aF0.0
aF0.000129326
aF0.0
aF0.000219492
aF0.000325291
aF0.0
aF0.000121859
aF0.000133595
aF0.0
asS'uvig_297180'
p745
(lp746
F0.0
aF0.000154241
aF0.001583151
aF0.000279884
aF0.0
aF0.0
aF0.001535935
aF0.000667668
aF0.001547133
aF0.0
aF0.000883936
aF0.001740066
aF0.001400203
aF0.00026852
aF0.0
aF0.0
aF0.000148674
aF0.000211495
aF0.0
aF0.000857667
aF0.004569501
aF0.000423843
aF0.00028534
aF0.000406613
aF0.0
aF0.0
aF0.0
aF0.0
asS'uvig_81464'
p747
(lp748
F0.0
aF0.00041645
aF0.000365343
aF0.000407104
aF0.0
aF0.0
aF8.19165e-05
aF0.0
aF0.00099815
aF0.0
aF0.000482147
aF0.000530868
aF0.0
aF0.00030688
aF4.20648e-05
aF0.0
aF0.0
aF0.0
aF0.0
aF0.0
aF0.00030176
aF0.01899587
aF0.000570679
aF0.000162645
aF0.0
aF0.0
aF0.000133595
aF0.0
asS'uvig_498906'
p749
(lp750
F0.000282588
aF0.000586115
aF0.000170493
aF0.001781081
aF0.000129093
aF0.000211761
aF0.001556414
aF0.002336839
aF0.002645099
aF0.0
aF0.000835722
aF0.001769559
aF0.00014002
aF0.00021098
aF0.0
aF0.00107129
aF0.0
aF0.000105747
aF0.0
aF0.0
aF0.014182697
aF0.000616499
aF0.002151022
aF0.002846292
aF0.003670281
aF0.00700688
aF0.006479349
aF0.003815851
asS'uvig_24707'
p751
(lp752
F0.000706469
aF0.000370178
aF0.000925534
aF0.00050888
aF0.00077456
aF0.000635282
aF0.000655332
aF0.0
aF0.000898335
aF0.002539177
aF0.000707149
aF0.010233947
aF0.0
aF0.080594458
aF0.000336519
aF0.001285548
aF0.000594697
aF0.000845979
aF0.000375177
aF0.000285889
aF0.000258651
aF0.002485261
aF0.000614578
aF0.000162645
aF0.001468113
aF0.001096729
aF0.00026719
aF0.000897847
asS'uvig_432191'
p753
(lp754
F0.000141294
aF0.001897162
aF0.047056119
aF0.000279884
aF0.000103275
aF0.000158821
aF0.000389103
aF0.0
aF0.000149723
aF0.000634794
aF0.001350012
aF0.001415647
aF0.0
aF0.000460321
aF0.000420648
aF0.000642774
aF0.000148674
aF0.0
aF0.000625295
aF0.0
aF0.023752785
aF0.000635764
aF0.013432912
aF0.000487936
aF0.000244685
aF0.000243718
aF0.000133595
aF0.000897847
asS'uvig_540412'
p755
(lp756
F0.0
aF0.000308482
aF4.87123e-05
aF0.000457992
aF0.0
aF0.00010588
aF4.09583e-05
aF0.0
aF0.000449168
aF0.0
aF0.000964294
aF0.000530868
aF0.0
aF0.00023016
aF8.41297e-05
aF0.0
aF0.0
aF0.000211495
aF0.0
aF0.0
aF0.032288268
aF0.000500905
aF0.000921867
aF0.0
aF0.0
aF0.0
aF0.0
aF0.0
asS'uvig_503689'
p757
(lp758
F0.003956227
aF0.010580917
aF0.005114795
aF0.023968258
aF0.00327897
aF0.004155805
aF0.005078824
aF0.005007511
aF0.006013856
aF0.003597168
aF0.015042988
aF0.009024749
aF0.019882887
aF0.018508722
aF0.002523891
aF0.004070902
aF0.002527464
aF0.003806905
aF0.004377068
aF0.003716558
aF0.001681232
aF0.017897731
aF0.008933326
aF0.004798035
aF0.003425596
aF0.005300857
aF0.004675819
aF0.00359139
asS'uvig_106907'
p759
(lp760
F0.000565175
aF0.000663235
aF0.020166908
aF0.00374027
aF0.000309824
aF0.000688223
aF0.005508886
aF0.0
aF0.013400169
aF0.000634794
aF0.001719658
aF0.012003506
aF0.002800407
aF0.002090623
aF0.000420648
aF0.000214258
aF0.000297349
aF0.001057474
aF0.000687825
aF0.001715335
aF0.060351903
aF0.005278771
aF0.016198512
aF0.001301162
aF0.001223427
aF0.000609294
aF0.000667974
aF0.001346771
asS'uvig_227995'
p761
(lp762
F0.0
aF6.16963e-05
aF0.0
aF0.000101776
aF0.0
aF0.0
aF0.0
aF0.0
aF7.48613e-05
aF0.0
aF0.001751801
aF0.000176956
aF0.0
aF7.67201e-05
aF0.000126195
aF0.0
aF0.0
aF0.0
aF0.0
aF0.0
aF0.030779471
aF3.85312e-05
aF0.000131695
aF0.00154513
aF0.000244685
aF0.0
aF0.0
aF0.0
asS'uvig_76269'
p763
(lp764
F0.000282588
aF0.005321307
aF0.009742468
aF0.009465172
aF0.000154912
aF5.29402e-05
aF0.004013909
aF0.000667668
aF0.005015706
aF0.0
aF0.005962552
aF0.006753815
aF0.002380346
aF0.005351227
aF0.000294454
aF0.000214258
aF0.000297349
aF0.0
aF0.000750355
aF0.005146004
aF0.002629619
aF0.004989787
aF0.005575098
aF0.004147454
aF0.0
aF0.000792082
aF0.000667974
aF0.0
asS'ivig_2174'
p765
(lp766
F0.000423881
aF0.002976847
aF0.000584548
aF0.003256833
aF0.000413099
aF0.000370581
aF0.000819165
aF0.000667668
aF0.001846578
aF0.000634794
aF0.001864302
aF0.005869036
aF0.015682277
aF0.001361782
aF0.000588908
aF0.001499806
aF0.0
aF0.001480463
aF0.000250118
aF0.000571778
aF8.6217e-05
aF0.011925399
aF0.001207206
aF0.002602324
aF0.000244685
aF0.001827882
aF0.000935164
aF0.000897847
asS'uvig_197398'
p767
(lp768
F0.0
aF0.051423874
aF0.000584548
aF0.007200655
aF0.000258187
aF0.000423522
aF0.000573416
aF0.0
aF0.000324399
aF0.000211598
aF0.002137519
aF0.008788808
aF0.001400203
aF0.000786381
aF0.000252389
aF0.000214258
aF0.000594697
aF0.000211495
aF0.000500236
aF0.000571778
aF0.000387977
aF0.001521981
aF0.000724324
aF0.000325291
aF0.000489371
aF0.000731153
aF0.000667974
aF0.0
asS'uvig_460769'
p769
(lp770
F0.001695526
aF0.011676027
aF0.005260933
aF0.004401814
aF0.000826197
aF0.000502932
aF0.002846599
aF0.001001502
aF0.003019405
aF0.001057991
aF0.019944817
aF0.007638595
aF0.01680244
aF0.005101886
aF0.001093686
aF0.00107129
aF0.000446023
aF0.000211495
aF0.002126005
aF0.015580955
aF0.001293255
aF0.010461214
aF0.004214247
aF0.004716713
aF0.001223427
aF0.001523235
aF0.00026719
aF0.000897847
asS'uvig_130390'
p771
(lp772
F0.000423881
aF0.006092511
aF0.001071671
aF0.002671621
aF0.000748741
aF0.001058804
aF0.00116731
aF0.0
aF0.001222734
aF0.001481187
aF0.027289524
aF0.012888285
aF0.003360488
aF0.004795006
aF0.001093686
aF0.001499806
aF0.000297349
aF0.001268968
aF0.000875414
aF0.001429445
aF0.0
aF0.032115735
aF0.002151022
aF0.000650581
aF0.001468113
aF0.000731153
aF0.000400784
aF0.000673386
asS'uvig_546131'
p773
(lp774
F0.000423881
aF0.007203044
aF0.000340986
aF0.000203552
aF0.0
aF0.000158821
aF0.000122875
aF0.014354866
aF0.00019963
aF0.000846392
aF0.000916079
aF0.000589853
aF0.0
aF0.012716355
aF0.000168259
aF0.000214258
aF0.002601801
aF0.0
aF0.000500236
aF0.0
aF0.000172434
aF0.000751358
aF0.00026339
aF0.0
aF0.0
aF0.000487435
aF0.000133595
aF0.0
asS'uvig_106878'
p775
(lp776
F0.000282588
aF0.001203078
aF0.000681973
aF0.001119536
aF5.16373e-05
aF0.000158821
aF0.000327666
aF0.0
aF0.000449168
aF0.000211598
aF0.029185969
aF0.001710573
aF0.0
aF0.000575401
aF0.000588908
aF0.000214258
aF0.000148674
aF0.000845979
aF0.000250118
aF0.001715335
aF8.6217e-05
aF0.000346781
aF0.000614578
aF0.0
aF0.000489371
aF0.0
aF0.000534379
aF0.0
asS'uvig_371277'
p777
(lp778
F0.000565175
aF0.00033933
aF0.001753644
aF0.004300038
aF0.000206549
aF5.29402e-05
aF0.00069629
aF0.0
aF0.004766168
aF0.0
aF0.001092867
aF0.00112072
aF0.00014002
aF0.00034524
aF0.000588908
aF0.001714064
aF0.000297349
aF0.0
aF0.000125059
aF0.004288336
aF0.043841347
aF0.002254074
aF0.000658476
aF0.000813226
aF0.0
aF0.0
aF0.0
aF0.0
asS'uvig_456586'
p779
(lp780
F0.000141294
aF0.002868878
aF0.001948494
aF0.00361305
aF0.0
aF0.0
aF0.000532457
aF0.00166917
aF0.000898335
aF0.000211598
aF0.009948301
aF0.003155713
aF0.001540224
aF0.000901461
aF0.000252389
aF0.000428516
aF0.000148674
aF0.0
aF0.000500236
aF0.000714723
aF0.00116393
aF0.005914536
aF0.003270431
aF0.003822164
aF0.0
aF0.000853011
aF0.0
aF0.000673386
asS'uvig_515684'
p781
(lp782
F0.000141294
aF0.000277633
aF0.011739673
aF0.001170424
aF5.16373e-05
aF5.29402e-05
aF0.000286708
aF0.0
aF0.004716261
aF0.0
aF0.000996437
aF0.002742816
aF0.001680244
aF0.001227521
aF0.000504778
aF0.0
aF0.000148674
aF0.0
aF0.0
aF0.001429445
aF0.022631964
aF0.002754979
aF0.00164619
aF0.0
aF0.0
aF0.0
aF0.0
aF0.0
asS'uvig_435637'
p783
(lp784
F0.000141294
aF0.003007695
aF0.005504494
aF0.003485829
aF7.7456e-05
aF0.00010588
aF0.000757728
aF0.000333834
aF0.002645099
aF0.0
aF0.015589422
aF0.010351918
aF0.005320773
aF0.002071443
aF0.000504778
aF0.000214258
aF0.000297349
aF0.0
aF0.000250118
aF0.003716558
aF0.00116393
aF0.006203519
aF0.011194094
aF0.001870421
aF0.000489371
aF0.000609294
aF0.00026719
aF0.000224462
asS'uvig_507847'
p785
(lp786
F0.000141294
aF0.000647811
aF0.000462767
aF0.00076332
aF5.16373e-05
aF0.00013235
aF0.000143354
aF0.000333834
aF0.000299445
aF0.000211598
aF0.032303853
aF0.001268184
aF0.0
aF0.000479501
aF0.000168259
aF0.000321387
aF0.000223012
aF0.000105747
aF0.000125059
aF0.000285889
aF4.31085e-05
aF0.000385312
aF0.000351187
aF0.000162645
aF0.0
aF0.000243718
aF0.000200392
aF0.0
asS'uvig_527729'
p787
(lp788
F0.000494528
aF0.001866313
aF0.05480138
aF0.0006361
aF0.000154912
aF0.000158821
aF0.002989953
aF0.001001502
aF0.001073012
aF0.0
aF0.002394664
aF0.005751066
aF0.003920569
aF0.001054901
aF0.000336519
aF0.000321387
aF0.000148674
aF0.0
aF0.001625768
aF0.008290784
aF0.009656305
aF0.000905483
aF0.026273196
aF0.000325291
aF0.0
aF0.000243718
aF0.000534379
aF0.000897847
asS'uvig_533478'
p789
(lp790
F0.0
aF0.007696615
aF0.000340986
aF0.001959189
aF0.000361461
aF0.000317641
aF0.00024575
aF0.000667668
aF0.00039926
aF0.000211598
aF0.018659091
aF0.010351918
aF0.002380346
aF0.003797645
aF0.000252389
aF0.000428516
aF0.0
aF0.0
aF0.000375177
aF0.000285889
aF8.6217e-05
aF0.024024188
aF0.000241441
aF0.0
aF0.000244685
aF0.000121859
aF0.000133595
aF0.0
asS'uvig_38845'
p791
(lp792
F0.000423881
aF0.000215937
aF0.001242165
aF0.000737876
aF0.000516373
aF0.0
aF0.000389103
aF0.0
aF0.00019963
aF0.0
aF0.003632175
aF0.003480132
aF0.005460793
aF0.005466307
aF0.000168259
aF0.0
aF0.000148674
aF0.000211495
aF0.0
aF0.001143556
aF0.000215543
aF0.001078873
aF0.000329238
aF0.0
aF0.000244685
aF0.000487435
aF0.000534379
aF0.0
asS'uvig_32553'
p793
(lp794
F0.000423881
aF0.001110534
aF0.041332419
aF0.001628417
aF0.000154912
aF0.000264701
aF0.000286708
aF0.0
aF0.000499075
aF0.000423196
aF0.001510727
aF0.001828544
aF0.001540224
aF0.000594581
aF0.001177816
aF0.00107129
aF0.000297349
aF0.000211495
aF0.000875414
aF0.000571778
aF0.000258651
aF0.000539436
aF0.000877968
aF0.001057194
aF0.000734056
aF0.000609294
aF0.000133595
aF0.0
asS'uvig_239614'
p795
(lp796
F0.002190054
aF0.017768537
aF0.005017371
aF0.02442625
aF0.000154912
aF0.000158821
aF0.000552937
aF0.0
aF0.00311922
aF0.0
aF0.019735886
aF0.048780833
aF0.003360488
aF0.003126344
aF0.000168259
aF0.0
aF0.000297349
aF0.0
aF0.000125059
aF0.010720841
aF0.000517302
aF0.025565435
aF0.009964938
aF0.018134947
aF0.0
aF0.001949741
aF0.0
aF0.0
asS'uvig_201109'
p797
(lp798
F0.000282588
aF0.109248739
aF0.001315233
aF0.021780073
aF0.000258187
aF0.000635282
aF0.00116731
aF0.000667668
aF0.000898335
aF0.000846392
aF0.005576834
aF0.0168403
aF0.004480651
aF0.002359143
aF0.001261945
aF0.0
aF0.000446023
aF0.000422989
aF0.000625295
aF0.000285889
aF0.000172434
aF0.005972332
aF0.001843733
aF0.000487936
aF0.000734056
aF0.001096729
aF0.000534379
aF0.000897847
asS'uvig_439493'
p799
(lp800
F0.0
aF0.000262209
aF0.008695152
aF0.0
aF0.0
aF0.0
aF0.000204791
aF0.0
aF0.0
aF0.0
aF0.000160716
aF0.000235941
aF0.0
aF0.00011508
aF0.000336519
aF0.0
aF0.0
aF0.0
aF0.0
aF0.0
aF0.017329618
aF0.0
aF8.77968e-05
aF0.0
aF0.0
aF0.0
aF0.0
aF0.0
asS'uvig_247354'
p801
(lp802
F0.000141294
aF0.000848324
aF0.001071671
aF0.001857413
aF2.58187e-05
aF0.000158821
aF0.000778207
aF0.000667668
aF0.000898335
aF0.0
aF0.005030401
aF0.001710573
aF0.001680244
aF0.001860462
aF0.0
aF0.000428516
aF0.0
aF0.0
aF0.0
aF0.001715335
aF0.001207038
aF0.001888028
aF0.002546108
aF0.001382485
aF0.0
aF0.000243718
aF0.0
aF0.0
asS'uvig_168533'
p803
(lp804
F0.003956227
aF0.005367579
aF0.002947096
aF0.002926061
aF0.000361461
aF0.001376445
aF0.004423492
aF0.0
aF0.001347503
aF0.000846392
aF0.03309136
aF0.007078235
aF0.002800407
aF0.003107164
aF0.001093686
aF0.000857032
aF0.00104072
aF0.001903453
aF0.000750355
aF0.001000612
aF0.000129326
aF0.002003621
aF0.004236196
aF0.017972302
aF0.000734056
aF0.001340447
aF0.003473465
aF0.000224462
asS'uvig_368605'
p805
(lp806
F7.06469e-05
aF2.544078157
aF0.000365343
aF0.000966872
aF0.0
aF7.94103e-05
aF0.000491499
aF0.0
aF0.001971347
aF0.0
aF0.004226823
aF0.029728585
aF0.001680244
aF0.000767201
aF0.000799232
aF0.0
aF0.0
aF0.0
aF0.000250118
aF0.000285889
aF0.0
aF0.00393018
aF0.00109746
aF0.000325291
aF0.0
aF0.0
aF0.0
aF0.0
asS'uvig_75025'
p807
(lp808
F0.000494528
aF0.000740356
aF0.00426233
aF0.00101776
aF0.000309824
aF0.000370581
aF0.000573416
aF0.303789017
aF0.010829932
aF0.000423196
aF0.002121447
aF0.006163963
aF0.00840122
aF0.028175454
aF0.001640529
aF0.000107129
aF0.004980591
aF0.000211495
aF0.000250118
aF0.000285889
aF0.000775953
aF0.001810965
aF0.000768222
aF0.000162645
aF0.000244685
aF0.0010358
aF0.000133595
aF0.000448924
asS'uvig_33153'
p809
(lp810
F0.000706469
aF0.000987141
aF0.000365343
aF0.000483436
aF0.001136021
aF0.000582342
aF0.00069629
aF0.0
aF0.001222734
aF0.002010182
aF0.004258966
aF0.000619346
aF0.00014002
aF0.000690481
aF0.000252389
aF0.001285548
aF0.000743372
aF0.000845979
aF0.001125532
aF0.002001224
aF0.000172434
aF0.000693561
aF0.000219492
aF0.0
aF0.0
aF0.001218588
aF0.000667974
aF0.0
asS'uvig_418132'
p811
(lp812
F0.001271644
aF0.003578386
aF0.048420064
aF0.002747953
aF0.000103275
aF0.000370581
aF0.013598142
aF0.007678184
aF0.009033261
aF0.000423196
aF0.01035009
aF0.101631651
aF0.017362521
aF0.002052262
aF0.001850853
aF0.000214258
aF0.001561081
aF0.000634484
aF0.001750827
aF0.01729629
aF0.003793548
aF0.005124646
aF0.120545025
aF0.000650581
aF0.000978742
aF0.000121859
aF0.00026719
aF0.001346771
asS'ivig_3353'
p813
(lp814
F0.000282588
aF0.007619494
aF0.016732688
aF0.00114498
aF0.000852016
aF0.001058804
aF0.00282612
aF0.015356368
aF0.015870592
aF0.000423196
aF0.026598446
aF0.003273683
aF0.018762724
aF0.005427947
aF0.002061177
aF0.002892483
aF0.006095648
aF0.001268968
aF0.003189007
aF0.004860114
aF0.006681818
aF0.010230027
aF0.004323993
aF0.005448616
aF0.000734056
aF0.001096729
aF0.000801569
aF0.000448924
asS'uvig_280979'
p815
(lp816
F0.000282588
aF0.000925445
aF0.001631863
aF0.001526641
aF5.16373e-05
aF0.00010588
aF0.000368624
aF0.0
aF0.000773567
aF0.0
aF0.00194466
aF0.003155713
aF0.006440935
aF0.002493403
aF0.000588908
aF0.000214258
aF0.000446023
aF0.000211495
aF0.000375177
aF0.0
aF0.000129326
aF0.001637575
aF0.001887631
aF0.001382485
aF0.0
aF0.000487435
aF0.000133595
aF0.000448924
asS'uvig_205844'
p817
(lp818
F0.000141294
aF0.000123393
aF0.001412658
aF0.000610656
aF0.000361461
aF0.000211761
aF0.00069629
aF0.0
aF0.000449168
aF0.000634794
aF0.004692898
aF0.004954764
aF0.006580956
aF0.00828577
aF0.000336519
aF0.000642774
aF0.0
aF0.000634484
aF0.000375177
aF0.000571778
aF0.000129326
aF0.001117404
aF0.000636527
aF0.000569258
aF0.000978742
aF0.000243718
aF0.000133595
aF0.0
asS'uvig_390157'
p819
(lp820
F0.0
aF0.000616963
aF0.000462767
aF0.000865096
aF0.0
aF0.00010588
aF0.000266229
aF0.0
aF0.00019963
aF0.0
aF0.021503759
aF0.001533617
aF0.0
aF0.000460321
aF0.0
aF0.0
aF0.0
aF0.000211495
aF0.000125059
aF0.000571778
aF0.000172434
aF0.000269718
aF0.00028534
aF0.000650581
aF0.000244685
aF0.000609294
aF0.0
aF0.0
asS'uvig_503101'
p821
(lp822
F0.004380109
aF0.000616963
aF0.023771621
aF0.001882857
aF0.003537156
aF0.003864634
aF0.003317619
aF0.002336839
aF0.007136776
aF0.002962374
aF0.001141081
aF0.031822563
aF0.006440935
aF0.000805561
aF0.002145307
aF0.003856644
aF0.001784092
aF0.003383916
aF0.002501182
aF0.002287113
aF0.000387977
aF0.002697182
aF0.000241441
aF0.000325291
aF0.002202169
aF0.003290187
aF0.004275034
aF0.001795695
asS'uvig_146874'
p823
(lp824
F0.000635822
aF0.002915151
aF0.002484329
aF0.003256833
aF0.0
aF5.29402e-05
aF0.000348145
aF0.000667668
aF0.000573936
aF0.0
aF0.00430718
aF0.003037742
aF0.001820264
aF0.001534402
aF0.000168259
aF0.000214258
aF0.0
aF0.0
aF0.000250118
aF0.001858279
aF0.000258651
aF0.006087926
aF0.002546108
aF0.001138517
aF0.0
aF0.000121859
aF0.000133595
aF0.0
asS'uvig_52699'
p825
(lp826
F0.0
aF0.004287893
aF0.006697946
aF0.003892934
aF0.0
aF0.00010588
aF0.000901082
aF0.000667668
aF0.000823474
aF0.000211598
aF0.010494734
aF0.00613447
aF0.008121179
aF0.004795006
aF0.001009556
aF0.0
aF0.000148674
aF0.0
aF0.000812884
aF0.002287113
aF0.000560411
aF0.006473238
aF0.004214247
aF0.001789098
aF0.0
aF0.000487435
aF0.000400784
aF0.000448924
asS'uvig_380418'
p827
(lp828
F0.000423881
aF0.00049357
aF0.040382528
aF0.000305328
aF0.000516373
aF0.000582342
aF0.001310664
aF0.000667668
aF0.001621994
aF0.000846392
aF0.000916079
aF0.001474632
aF0.000560081
aF0.000498681
aF0.000925427
aF0.000857032
aF0.000148674
aF0.000422989
aF0.000375177
aF0.0
aF0.071301463
aF0.000308249
aF0.000592628
aF0.000243968
aF0.000978742
aF0.000365576
aF0.000534379
aF0.0
asS'uvig_398907'
p829
(lp830
F0.0
aF0.00033933
aF0.0150034
aF0.001119536
aF0.0
aF0.00010588
aF0.000614374
aF0.0
aF0.000573936
aF0.0
aF0.00061072
aF0.000383404
aF0.000420061
aF0.00021098
aF8.41297e-05
aF0.0
aF0.0
aF0.0
aF0.0
aF0.000571778
aF0.006768035
aF0.000250453
aF0.002897295
aF0.000406613
aF0.0
aF0.0
aF0.0
aF0.0
asS'uvig_51406'
p831
(lp832
F0.001412938
aF0.032668196
aF0.028472362
aF0.011882353
aF0.00134257
aF0.000529402
aF0.00659428
aF0.002003005
aF0.014123829
aF0.000211598
aF0.016248356
aF0.032736835
aF0.010221484
aF0.015785159
aF0.000504778
aF0.00214258
aF0.000892046
aF0.000634484
aF0.002313593
aF0.013722676
aF0.007457771
aF0.014140942
aF0.020632251
aF0.005204648
aF0.0
aF0.000548365
aF0.001068759
aF0.000448924
asS'uvig_362152'
p833
(lp834
F0.0
aF0.002406156
aF0.00197285
aF0.001170424
aF0.0
aF0.00010588
aF0.002027434
aF0.017359372
aF0.001796671
aF0.0
aF0.000433932
aF0.004659838
aF0.015262216
aF0.035118623
aF0.000168259
aF0.0
aF0.008846124
aF0.0
aF0.000625295
aF0.008862562
aF0.012717008
aF0.000385312
aF0.000943816
aF0.003578196
aF0.0
aF0.000487435
aF0.0
aF0.0
asS'uvig_16065'
p835
(lp836
F0.000565175
aF0.000678659
aF0.002313836
aF0.000966872
aF0.000593829
aF0.000476462
aF0.000511978
aF0.0
aF0.000548983
aF0.0
aF0.006203625
aF0.005308676
aF0.011901728
aF0.009858532
aF0.000252389
aF0.0
aF0.0
aF0.000634484
aF0.000250118
aF0.000571778
aF0.000431085
aF0.001849496
aF0.000768222
aF0.000650581
aF0.000244685
aF0.000365576
aF0.000400784
aF0.000448924
asS'uvig_565240'
p837
(lp838
F0.000353235
aF0.001496135
aF0.084199276
aF0.00050888
aF0.000438917
aF0.000211761
aF0.005242657
aF0.003004507
aF0.004017555
aF0.000423196
aF0.018932308
aF0.014539873
aF0.003500508
aF0.009724272
aF0.000673038
aF0.000857032
aF0.002527464
aF0.000317242
aF0.000375177
aF0.000857667
aF0.025520233
aF0.014526253
aF0.002568057
aF0.005855229
aF0.000489371
aF0.001462305
aF0.000133595
aF0.000673386
assS'subclass_sl'
p839
(dp840
g12
(I20
I28
tp841
sg14
(I10
I20
tp842
sg16
(I0
I10
tp843
ssS'norm'
p844
F-1.0
sS'cls'
p845
(dp846
S'class'
p847
(S'NW'
p848
S'NW'
p849
S'NW'
p850
S'NW'
p851
S'NW'
p852
S'NW'
p853
S'NW'
p854
S'NW'
p855
S'NW'
p856
g7
g5
g5
g5
g5
g5
g5
g5
g5
g5
g5
S'OMC'
p857
S'OMC'
p858
S'OMC'
p859
S'OMC'
p860
S'OMC'
p861
S'OMC'
p862
S'OMC'
p863
g3
tp864
sS'subclass'
p865
(lp866
S'NW_subcl'
p867
aS'NW_subcl'
p868
aS'NW_subcl'
p869
aS'NW_subcl'
p870
aS'NW_subcl'
p871
aS'NW_subcl'
p872
aS'NW_subcl'
p873
aS'NW_subcl'
p874
aS'NW_subcl'
p875
ag16
aS'O_subcl'
p876
aS'O_subcl'
p877
aS'O_subcl'
p878
aS'O_subcl'
p879
aS'O_subcl'
p880
aS'O_subcl'
p881
aS'O_subcl'
p882
aS'O_subcl'
p883
aS'O_subcl'
p884
ag14
aS'OMC_subcl'
p885
aS'OMC_subcl'
p886
aS'OMC_subcl'
p887
aS'OMC_subcl'
p888
aS'OMC_subcl'
p889
aS'OMC_subcl'
p890
aS'OMC_subcl'
p891
ag12
asS'subject'
p892
(S'H-10'
p893
S'H-118'
p894
S'H-119'
p895
S'H-120'
p896
S'H-124'
p897
S'H-147'
p898
S'H-161'
p899
S'H-169'
p900
S'H-193'
p901
S'H-314'
p902
S'O-121'
p903
S'O-122'
p904
S'O-123'
p905
S'O-152'
p906
S'O-39'
p907
S'O-418'
p908
S'O-420'
p909
S'O-434'
p910
S'O-445'
p911
S'O-90'
p912
S'OMC-124'
p913
S'OMC-125'
p914
S'OMC-126'
p915
S'OMC-288'
p916
S'OMC-446'
p917
S'OMC-55'
p918
S'OMC-64'
p919
S'OMC-87'
p920
tp921
ss.